(dp0
S'SENT_148'
p1
(lp2
S'In'
p3
aS'no'
p4
aS'event'
p5
aS'shall'
p6
aS'Adaptec'
p7
aS'make'
p8
aS'any'
p9
aS'modification'
p10
aS'to'
p11
aS'a'
p12
aS'Product'
p13
aS'or'
p14
aS'its'
p15
aS'packaging'
p16
aS'without'
p17
aS"Roxio's"
p18
aS'prior'
p19
aS'written'
p20
aS'approval,'
p21
aS'which'
p22
aS'shall'
p23
aS'not'
p24
aS'unreasonably'
p25
aS'be'
p26
aS'withheld'
p27
aS'or'
p28
aS'delayed.'
p29
asS'SENT_149'
p30
(lp31
S'11.2'
p32
aS'AT'
p33
aS"ROXIO'S"
p34
aS'REQUEST.'
p35
asS'SENT_146'
p36
(lp37
S'EXCEPT'
p38
aS'AS'
p39
aS'EXPRESSLY'
p40
aS'SET'
p41
aS'FORTH'
p42
aS'IN'
p43
aS'SECTION'
p44
aS'10.1,'
p45
aS'THE'
p46
aS'SERVICES'
p47
aS'ARE'
p48
aS'PERFORMED'
p49
aS'AND'
p50
aS'THE'
p51
aS'PRODUCTS'
p52
aS'ARE'
p53
aS'PROVIDED'
p54
aS'"AS'
p55
aS'IS"'
p56
aS'AND'
p57
aS'ADAPTEC'
p58
aS'MAKES'
p59
aS'NO'
p60
aS'REPRESENTATION'
p61
aS'OR'
p62
aS'WARRANTY'
p63
aS'OF'
p64
aS'ANY'
p65
aS'KIND,'
p66
aS'EXPRESS,'
p67
aS'IMPLIED'
p68
aS'OR'
p69
aS'STATUTORY,'
p70
aS'INCLUDING'
p71
aS'BUT'
p72
aS'NOT'
p73
aS'LIMITED'
p74
aS'TO'
p75
aS'WARRANTIES'
p76
aS'OF'
p77
aS'MERCHANTABILITY,'
p78
aS'FITNESS'
p79
aS'FOR'
p80
aS'A'
p81
aS'PARTICULAR'
p82
aS'PURPOSE,'
p83
aS'AND'
p84
aS'NONINFRINGEMENT.'
p85
asS'SENT_147'
p86
(lp87
S'9'
p88
aS'ARTICLE'
p89
aS'11'
p90
aS'PRODUCT'
p91
aS'CHANGES'
p92
aS'11.1'
p93
aS'ON'
p94
aS"ADAPTEC'S"
p95
aS'NOTICE.'
p96
asS'SENT_144'
p97
(lp98
S'Adaptec'
p99
aS'shall'
p100
aS'have'
p101
aS'no'
p102
aS'liability'
p103
aS'or'
p104
aS'obligation'
p105
aS'to'
p106
aS'Roxio'
p107
aS'under'
p108
aS'this'
p109
aS'Article'
p110
aS'10'
p111
aS'with'
p112
aS'respect'
p113
aS'to'
p114
aS'any'
p115
aS'Products'
p116
aS'which'
p117
aS'have'
p118
aS'been'
p119
aS'subjected'
p120
aS'to'
p121
aS'abuse,'
p122
aS'misuse,'
p123
aS'improper'
p124
aS'use,'
p125
aS'negligence,'
p126
aS'accident,'
p127
aS'alteration,'
p128
aS'repair'
p129
aS'or'
p130
aS'rework'
p131
aS'performed'
p132
aS'by'
p133
aS'unauthorized'
p134
aS'parties.'
p135
asS'SENT_145'
p136
(lp137
S'10.5'
p138
aS'DISCLAIMER'
p139
aS'OF'
p140
aS'WARRANTIES.'
p141
asS'SENT_142'
p142
(lp143
S'All'
p144
aS'returns'
p145
aS'of'
p146
aS'the'
p147
aS'Products'
p148
aS'made'
p149
aS'by'
p150
aS'Roxio'
p151
aS'or'
p152
aS'its'
p153
aS'Customers'
p154
aS'shall'
p155
aS'comply'
p156
aS'with'
p157
aS'the'
p158
aS'RMA'
p159
aS'Procedures'
p160
aS'then'
p161
aS'in'
p162
aS'effect,'
p163
ag12
aS'current'
p164
aS'version'
p165
aS'of'
p166
aS'which'
p167
aS'is'
p168
aS'attached'
p169
aS'hereto'
p170
aS'as'
p171
aS'EXHIBIT'
p172
aS'B.'
p173
asS'SENT_143'
p174
(lp175
S'10.4'
p176
aS'NO'
p177
aS'LIABILITY.'
p178
asS'SENT_140'
p179
(lp180
S'The'
p181
aS'foregoing'
p182
aS'shall'
p183
aS'constitute'
p184
aS"Roxio's"
p185
aS'sole'
p186
aS'remedy'
p187
aS'and'
p188
aS"Adaptec's"
p189
aS'sole'
p190
aS'obligation'
p191
aS'with'
p192
aS'respect'
p193
aS'to'
p194
aS'any'
p195
aS'breach'
p196
aS'of'
p197
aS'warranty'
p198
aS'under'
p199
aS'this'
p200
aS'Agreement.'
p201
asS'SENT_141'
p202
(lp203
S'10.3'
p204
aS'RMA'
p205
aS'PROCEDURES.'
p206
asS'SENT_37'
p207
(lp208
S'"Roxio'
p209
aS'Technology"'
p210
aS'means'
p211
aS'technical'
p212
aS'information'
p213
aS'specific'
p214
aS'to'
p215
aS'the'
p216
aS'Products,'
p217
aS'including'
p218
aS'the'
p219
aS'Roxio'
p220
aS'Documentation'
p221
aS'and'
p222
aS'software'
p223
aS'code.'
p224
asS'SENT_36'
p225
(lp226
S'1.17'
p227
aS'ROXIO'
p228
aS'TECHNOLOGY.'
p229
asS'SENT_35'
p230
(lp231
S'"Roxio'
p232
aS'Documentation"'
p233
aS'means'
p234
aS'the'
p235
aS'Specifications,'
p236
aS'Packaging'
p237
aS'Specifications,'
p238
aS'approved'
p239
aS'Bill'
p240
aS'of'
p241
aS'Materials'
p242
aS'("BOM"),'
p243
aS'artwork,'
p244
aS'manuals,'
p245
aS'Golden'
p246
aS'Master'
p247
aS'and'
p248
aS'related'
p249
aS'documentation'
p250
aS'and'
p251
aS'materials'
p252
aS'to'
p253
aS'be'
p254
aS'provided'
p255
aS'to'
p256
aS'Adaptec'
p257
aS'by'
p258
aS'Roxio'
p259
aS'with'
p260
aS'respect'
p261
aS'to'
p262
aS'the'
p263
aS'Products.'
p264
asS'SENT_34'
p265
(lp266
S'1.16'
p267
aS'ROXIO'
p268
aS'DOCUMENTATION.'
p269
asS'SENT_33'
p270
(lp271
S'"Quarterly'
p272
aS'Review'
p273
aS'Meeting"'
p274
aS'shall'
p275
aS'mean'
p276
ag12
aS'meeting'
p277
aS'between'
p278
aS'Roxio'
p279
aS'and'
p280
aS'Adaptec'
p281
aS'for'
p282
aS'the'
p283
aS'purpose'
p284
aS'of'
p285
aS'reviewing'
p286
aS'production,'
p287
aS'forecasts,'
p288
aS'fees,'
p289
aS'inventory'
p290
aS'liability'
p291
aS'and'
p292
aS'related'
p293
aS'matters.'
p294
asS'SENT_32'
p295
(lp296
S'1.15'
p297
aS'QUARTERLY'
p298
aS'REVIEW'
p299
aS'MEETING.'
p300
asS'SENT_31'
p301
(lp302
S'"Product"'
p303
aS'means'
p304
ag12
aS'completed'
p305
aS'product'
p306
aS'to'
p307
aS'be'
p308
aS'manufactured'
p309
aS'as'
p310
ag12
aS'result'
p311
aS'of'
p312
aS'the'
p313
aS'Services,'
p314
aS'initially'
p315
aS'as'
p316
aS'set'
p317
aS'forth'
p318
aS'in'
p319
aS'EXHIBIT'
p320
aS'A,'
p321
aS'as'
p322
aS'it'
p323
aS'may'
p324
aS'be'
p325
aS'amended'
p326
aS'in'
p327
aS'accordance'
p328
aS'with'
p329
aS'Article'
p330
aS'5'
p331
aS'from'
p332
aS'time'
p333
aS'to'
p334
aS'time.'
p335
asS'SENT_30'
p336
(lp337
S'1.14'
p338
aS'PRODUCT.'
p339
asS'SENT_165'
p340
(lp341
S'The'
p342
aS'Indemnifying'
p343
aS'Party'
p344
aS'shall'
p345
aS'not'
p346
aS'be'
p347
aS'responsible'
p348
aS'for'
p349
aS'any'
p350
aS'settlement'
p351
aS'made'
p352
aS'by'
p353
aS'the'
p354
aS'Indemnified'
p355
aS'Party'
p356
aS'without'
p357
aS'the'
p358
aS'Indemnifying'
p359
aS"Party's"
p360
aS'written'
p361
aS'permission.'
p362
asS'SENT_39'
p363
(lp364
S'"Roxio'
p365
aS'Warehouse"'
p366
aS'means'
p367
aS'the'
p368
aS'Roxio'
p369
aS'Warehouse'
p370
aS'in'
p371
aS'the'
p372
aS'Netherlands.'
p373
asS'SENT_38'
p374
(lp375
S'1.18'
p376
aS'ROXIO'
p377
aS'WAREHOUSE.'
p378
asS'SENT_181'
p379
(lp380
S'Upon'
p381
aS'expiration'
p382
aS'or'
p383
aS'earlier'
p384
aS'termination'
p385
aS'of'
p386
aS'this'
p387
aS'Agreement'
p388
aS'by'
p389
aS'Roxio'
p390
aS'pursuant'
p391
aS'to'
p392
aS'Sections'
p393
aS'15.1'
p394
aS'or'
p395
aS'15.3,'
p396
aS'Adaptec'
p397
aS'shall'
p398
aS'deliver'
p399
aS'to'
p400
aS'Roxio,'
p401
aS'or'
p402
aS'to'
p403
aS"Roxio's"
p404
aS'agent,'
p405
aS'as'
p406
aS'Roxio'
p407
aS'may'
p408
aS'direct,'
p409
ag12
aS'copy'
p410
aS'of'
p411
aS'the'
p412
aS'Roxio'
p413
aS'Documentation'
p414
aS'applicable'
p415
aS'to'
p416
aS'each'
p417
aS'Product'
p418
aS'in'
p419
aS'order'
p420
aS'to'
p421
aS'assist'
p422
aS'in'
p423
aS'the'
p424
aS'transfer'
p425
aS'of'
p426
aS'the'
p427
aS'performance'
p428
aS'of'
p429
aS'the'
p430
aS'Services'
p431
aS'to'
p432
aS'Roxio'
p433
aS'or'
p434
aS'its'
p435
aS'designated'
p436
aS'third'
p437
aS'party'
p438
aS'manufacturer.'
p439
asS'SENT_200'
p440
(lp441
S'Neither'
p442
aS'party'
p443
aS'shall'
p444
aS'assign'
p445
aS'any'
p446
aS'of'
p447
aS'its'
p448
aS'rights'
p449
aS'or'
p450
aS'privileges'
p451
aS'hereunder'
p452
aS'without'
p453
aS'the'
p454
aS'prior'
p455
aS'written'
p456
aS'consent'
p457
aS'of'
p458
aS'the'
p459
aS'other'
p460
aS'party;'
p461
aS'provided,'
p462
aS'however,'
p463
aS'that'
p464
aS'Adaptec'
p465
aS'may'
p466
aS'subcontract'
p467
aS'the'
p468
aS'performance'
p469
aS'of'
p470
aS'any'
p471
aS'or'
p472
aS'all'
p473
aS'of'
p474
aS'the'
p475
aS'Services'
p476
aS'without'
p477
aS"Roxio's"
p478
aS'consent,'
p479
aS'subject'
p480
aS'to'
p481
aS"Adaptec's"
p482
aS'compliance'
p483
aS'with'
p484
aS'the'
p485
aS'provisions'
p486
aS'of'
p487
aS'Section'
p488
aS'3.6.'
p489
asS'SENT_238'
p490
(lp491
S'Any'
p492
aS'additional,'
p493
aS'inconsistent'
p494
aS'or'
p495
aS'conflicting'
p496
aS'clauses'
p497
aS'in'
p498
aS'any'
p499
aS'order,'
p500
aS'release,'
p501
aS'acceptance'
p502
aS'or'
p503
aS'other'
p504
aS'written'
p505
aS'correspondence'
p506
aS'between'
p507
aS'the'
p508
aS'parties'
p509
aS'shall'
p510
aS'be'
p511
aS'considered'
p512
aS'null'
p513
aS'and'
p514
aS'void,'
p515
aS'unless'
p516
aS'expressly'
p517
aS'executed'
p518
aS'by'
p519
aS'duly'
p520
aS'authorized'
p521
aS'representatives'
p522
aS'of'
p523
aS'both'
p524
aS'parties.'
p525
asS'SENT_151'
p526
(lp527
S'Any'
p528
aS'change'
p529
aS'necessary'
p530
aS'for'
p531
aS'proper'
p532
aS'functioning'
p533
aS'of'
p534
aS'the'
p535
aS'Products'
p536
aS'will'
p537
aS'be'
p538
aS'implemented'
p539
aS'by'
p540
aS'Adaptec'
p541
aS'as'
p542
aS'soon'
p543
aS'as'
p544
aS'possible.'
p545
asS'SENT_150'
p546
(lp547
S'Should'
p548
aS'Roxio'
p549
aS'desire'
p550
aS'modifications'
p551
aS'in'
p552
ag12
aS'Product'
p553
aS'or'
p554
aS'its'
p555
aS'packaging,'
p556
aS'Roxio'
p557
aS'shall'
p558
aS'submit'
p559
aS'its'
p560
aS'request'
p561
aS'to'
p562
aS'Adaptec'
p563
aS'in'
p564
aS'writing,'
p565
aS'and'
p566
aS'Adaptec'
p567
aS'shall'
p568
aS'use'
p569
aS'reasonable'
p570
aS'commercial'
p571
aS'efforts'
p572
aS'to'
p573
aS'respond'
p574
aS'to'
p575
aS'such'
p576
aS'request'
p577
aS'in'
p578
aS'writing'
p579
aS'within'
p580
aS'five'
p581
aS'(5)'
p582
aS'business'
p583
aS'days,'
p584
aS'setting'
p585
aS'forth'
p586
aS'the'
p587
aS'impact'
p588
aS'of'
p589
aS'such'
p590
aS'proposed'
p591
aS'change'
p592
aS'on'
p593
aS'the'
p594
aS'performance'
p595
aS'of'
p596
aS'the'
p597
aS'Services'
p598
aS'and'
p599
aS'the'
p600
aS'relevant'
p601
aS'Service'
p602
aS'Fee'
p603
aS'with'
p604
aS'respect'
p605
aS'to'
p606
aS'the'
p607
aS'Products.'
p608
asS'SENT_153'
p609
(lp610
S'Roxio'
p611
aS'shall'
p612
aS'be'
p613
aS'responsible'
p614
aS'for'
p615
aS'payment'
p616
aS'for'
p617
aS'any'
p618
aS'Inventory,'
p619
aS'which'
p620
aS'is'
p621
aS'made'
p622
aS'obsolete'
p623
aS'as'
p624
ag12
aS'consequence'
p625
aS'of'
p626
aS'the'
p627
aS'implementation'
p628
aS'of'
p629
aS'the'
p630
aS'change.'
p631
asS'SENT_152'
p632
(lp633
S'Unless'
p634
aS'the'
p635
aS'parties'
p636
aS'agree'
p637
aS'otherwise,'
p638
aS'requested'
p639
aS'changes'
p640
aS'will'
p641
aS'not'
p642
aS'affect'
p643
aS'the'
p644
aS'Products'
p645
aS'already'
p646
aS'scheduled'
p647
aS'or'
p648
aS'rescheduled'
p649
aS'for'
p650
aS'Delivery'
p651
aS'as'
p652
aS'of'
p653
aS'the'
p654
aS'date'
p655
aS'Adaptec'
p656
aS'receives'
p657
aS'such'
p658
aS'request.'
p659
asS'SENT_155'
p660
(lp661
S'All'
p662
aS'changes'
p663
aS'to'
p664
ag12
aS'Product'
p665
aS'shall'
p666
aS'be'
p667
aS'subject'
p668
aS'to'
p669
aS"Adaptec's"
p670
aS'standard'
p671
aS'change'
p672
aS'management'
p673
aS'procedure.'
p674
asS'SENT_154'
p675
(lp676
S'11.3'
p677
aS'CHANGE'
p678
aS'MANAGEMENT.'
p679
asS'SENT_157'
p680
(lp681
S'Nothing'
p682
aS'in'
p683
aS'this'
p684
aS'Agreement'
p685
aS'shall'
p686
aS'limit'
p687
aS'the'
p688
aS'ability'
p689
aS'of'
p690
aS'Adaptec'
p691
aS'to'
p692
aS'produce'
p693
aS'products'
p694
aS'or'
p695
aS'portions'
p696
aS'of'
p697
aS'products'
p698
aS'which'
p699
aS'are'
p700
aS'similar'
p701
aS'to'
p702
aS'the'
p703
aS'Products'
p704
aS'for'
p705
aS'customers'
p706
aS'other'
p707
aS'than'
p708
aS'Roxio,'
p709
aS'either'
p710
aS'during'
p711
aS'the'
p712
aS'term'
p713
aS'of'
p714
aS'this'
p715
aS'Agreement'
p716
aS'or'
p717
aS'after'
p718
aS'its'
p719
aS'termination,'
p720
aS'provided'
p721
aS'that'
p722
aS'in'
p723
aS'doing'
p724
aS'so,'
p725
aS'Adaptec'
p726
aS'does'
p727
aS'not'
p728
aS'infringe'
p729
aS"Roxio's"
p730
aS'intellectual'
p731
aS'property'
p732
aS'rights.'
p733
asS'SENT_156'
p734
(lp735
S'ARTICLE'
p736
aS'12'
p737
aS'OWNERSHIP'
p738
aS'OF'
p739
aS'ROXIO'
p740
aS'TECHNOLOGY'
p741
aS'Roxio'
p742
aS'owns'
p743
aS'the'
p744
aS'Roxio'
p745
aS'Technology.'
p746
asS'SENT_159'
p747
(lp748
S'ARTICLE'
p749
aS'13'
p750
aS'INTELLECTUAL'
p751
aS'PROPERTY'
p752
aS'INDEMNITY'
p753
aS'Roxio'
p754
aS'shall,'
p755
aS'at'
p756
aS'its'
p757
aS'expense'
p758
aS'and'
p759
aS'at'
p760
aS"Adaptec's"
p761
aS'request,'
p762
aS'defend'
p763
aS'any'
p764
aS'claim'
p765
aS'or'
p766
aS'action'
p767
aS'brought'
p768
aS'against'
p769
aS'Adaptec,'
p770
aS'and'
p771
aS"Adaptec's"
p772
aS'subsidiaries,'
p773
aS'affiliates,'
p774
aS'directors,'
p775
aS'officers,'
p776
aS'employees,'
p777
aS'agents'
p778
aS'and'
p779
aS'independent'
p780
aS'contractors,'
p781
aS'to'
p782
aS'the'
p783
aS'extent'
p784
aS'it'
p785
aS'is'
p786
aS'based'
p787
aS'on'
p788
ag12
aS'claim'
p789
aS'that'
p790
aS'the'
p791
aS'Roxio'
p792
aS'Documentation,'
p793
aS'the'
p794
aS'Product'
p795
aS'or'
p796
aS'any'
p797
aS'third'
p798
aS'party'
p799
aS'intellectual'
p800
aS'property'
p801
aS'incorporated'
p802
aS'in'
p803
aS'Product'
p804
aS'at'
p805
aS'the'
p806
aS'direction'
p807
aS'of'
p808
aS'Roxio,'
p809
aS'infringes'
p810
aS'any'
p811
aS'patent,'
p812
aS'copyright,'
p813
aS'mask'
p814
aS'work'
p815
aS'right'
p816
aS'or'
p817
aS'other'
p818
aS'intellectual'
p819
aS'property'
p820
aS'right,'
p821
aS'or'
p822
aS'misappropriates'
p823
aS'any'
p824
aS'trade'
p825
aS'secret,'
p826
aS'of'
p827
ag12
aS'third'
p828
aS'party'
p829
aS'("Claim").'
p830
asS'SENT_158'
p831
(lp832
S'or'
p833
aS'use'
p834
aS'Roxio'
p835
aS'Technology'
p836
aS'or'
p837
aS'Roxio'
p838
aS'Confidential'
p839
aS'Information.'
p840
asS'SENT_180'
p841
(lp842
S'15.5'
p843
aS'TRANSITION'
p844
aS'ASSISTANCE.'
p845
asS'SENT_226'
p846
(lp847
S'The'
p848
aS'parties'
p849
aS'hereto'
p850
aS'have'
p851
aS'negotiated'
p852
aS'and'
p853
aS'prepared'
p854
aS'the'
p855
aS'terms'
p856
aS'of'
p857
aS'this'
p858
aS'Agreement'
p859
aS'in'
p860
aS'good'
p861
aS'faith'
p862
aS'with'
p863
aS'the'
p864
aS'intent'
p865
aS'that'
p866
aS'each'
p867
aS'and'
p868
aS'every'
p869
aS'one'
p870
aS'of'
p871
aS'the'
p872
aS'terms,'
p873
aS'covenants'
p874
aS'and'
p875
aS'conditions'
p876
aS'herein'
p877
aS'be'
p878
aS'binding'
p879
aS'upon'
p880
aS'and'
p881
aS'inure'
p882
aS'to'
p883
aS'the'
p884
aS'benefit'
p885
aS'of'
p886
aS'the'
p887
aS'respective'
p888
aS'parties.'
p889
asS'SENT_24'
p890
(lp891
S'1.11'
p892
aS'MASTER'
p893
aS'SEPARATION'
p894
aS'AND'
p895
aS'DISTRIBUTION'
p896
aS'AGREEMENT.'
p897
asS'SENT_25'
p898
(lp899
S'"Master'
p900
aS'Separation'
p901
aS'and'
p902
aS'Distribution'
p903
aS'Agreement"'
p904
aS'means'
p905
aS'the'
p906
aS'Master'
p907
aS'Separation'
p908
aS'and'
p909
aS'Distribution'
p910
aS'Agreement'
p911
aS'between'
p912
aS'Adaptec'
p913
aS'and'
p914
aS'Roxio.'
p915
asS'SENT_26'
p916
(lp917
S'1.12'
p918
aS'MINIMUM'
p919
aS'ORDER'
p920
aS'SIZE.'
p921
asS'SENT_27'
p922
(lp923
S'"Minimum'
p924
aS'Order'
p925
aS'Size"'
p926
aS'means'
p927
aS'the'
p928
aS'minimum'
p929
aS'quantity'
p930
aS'of'
p931
aS'each'
p932
aS'type'
p933
aS'of'
p934
aS'Product'
p935
aS'for'
p936
aS'which'
p937
aS'Services'
p938
aS'may'
p939
aS'be'
p940
aS'initiated,'
p941
aS'as'
p942
aS'specified'
p943
aS'in'
p944
aS'EXHIBIT'
p945
aS'A.'
p946
asS'SENT_20'
p947
(lp948
S'"Inventory"'
p949
aS'means'
p950
aS'the'
p951
aS'Components'
p952
aS'Inventory,'
p953
aS'Work'
p954
aS'in'
p955
aS'Process'
p956
aS'and'
p957
aS'Finished'
p958
aS'Goods'
p959
aS'Inventory.'
p960
asS'SENT_21'
p961
(lp962
S'1.10'
p963
aS'LEAD'
p964
aS'TIME.'
p965
asS'SENT_22'
p966
(lp967
S'"Lead'
p968
aS'Time"'
p969
aS'means'
p970
aS'the'
p971
aS'minimum'
p972
aS'amount'
p973
aS'of'
p974
aS'time'
p975
aS'prior'
p976
aS'to'
p977
aS'the'
p978
aS'requested'
p979
aS'Delivery'
p980
aS'of'
p981
ag12
aS'Product'
p982
aS'that'
p983
ag12
aS'Service'
p984
aS'Order'
p985
aS'must'
p986
aS'be'
p987
aS'provided'
p988
aS'to'
p989
aS'Adaptec'
p990
aS'to'
p991
aS'2'
p992
aS'initiate'
p993
aS'the'
p994
aS'performance'
p995
aS'of'
p996
aS'Services.'
p997
asS'SENT_23'
p998
(lp999
S'The'
p1000
aS'Lead'
p1001
aS'Time'
p1002
aS'as'
p1003
aS'of'
p1004
aS'the'
p1005
aS'Separation'
p1006
aS'Date'
p1007
aS'is'
p1008
aS'eleven'
p1009
aS'(11)'
p1010
aS'days.'
p1011
asS'SENT_186'
p1012
(lp1013
S'ARTICLE'
p1014
aS'18'
p1015
aS'DISPUTE'
p1016
aS'RESOLUTION'
p1017
aS'Resolution'
p1018
aS'of'
p1019
aS'any'
p1020
aS'and'
p1021
aS'all'
p1022
aS'disputes'
p1023
aS'arising'
p1024
aS'from'
p1025
aS'or'
p1026
aS'in'
p1027
aS'connection'
p1028
aS'with'
p1029
aS'this'
p1030
aS'Agreement'
p1031
aS'("Disputes")'
p1032
aS'shall'
p1033
aS'be'
p1034
aS'exclusively'
p1035
aS'governed'
p1036
aS'by'
p1037
aS'and'
p1038
aS'settled'
p1039
aS'in'
p1040
aS'accordance'
p1041
aS'with'
p1042
aS'the'
p1043
aS'provisions'
p1044
aS'of'
p1045
aS'this'
p1046
aS'Article'
p1047
aS'18.'
p1048
asS'SENT_28'
p1049
(lp1050
S'1.13'
p1051
aS'PACKAGING'
p1052
aS'SPECIFICATIONS.'
p1053
asS'SENT_29'
p1054
(lp1055
S'"Packaging'
p1056
aS'Specifications"'
p1057
aS'means'
p1058
aS'the'
p1059
aS'packaging'
p1060
aS'process'
p1061
aS'and'
p1062
aS'format'
p1063
aS'to'
p1064
aS'be'
p1065
aS'agreed'
p1066
aS'upon'
p1067
aS'by'
p1068
aS'the'
p1069
aS'parties'
p1070
aS'with'
p1071
aS'respect'
p1072
aS'to'
p1073
aS'each'
p1074
aS'Product'
p1075
aS'and'
p1076
aS'set'
p1077
aS'forth'
p1078
aS'in'
p1079
aS'the'
p1080
aS'applicable'
p1081
aS'specification.'
p1082
asS'SENT_187'
p1083
(lp1084
S'(a)'
p1085
aS'The'
p1086
aS'parties'
p1087
aS'shall'
p1088
aS'make'
p1089
ag12
aS'good'
p1090
aS'faith'
p1091
aS'attempt'
p1092
aS'to'
p1093
aS'resolve'
p1094
aS'any'
p1095
aS'Dispute'
p1096
aS'arising'
p1097
aS'out'
p1098
aS'of'
p1099
aS'or'
p1100
aS'relating'
p1101
aS'to'
p1102
aS'this'
p1103
aS'Agreement'
p1104
aS'through'
p1105
aS'informal'
p1106
aS'negotiation'
p1107
aS'between'
p1108
aS'appropriate'
p1109
aS'representatives'
p1110
aS'or'
p1111
aS'each'
p1112
aS'of'
p1113
aS'Adaptec'
p1114
aS'and'
p1115
aS'Roxio.'
p1116
asS'SENT_179'
p1117
(lp1118
S'(d)'
p1119
aS'Notwithstanding'
p1120
aS'any'
p1121
aS'termination'
p1122
aS'of'
p1123
aS'this'
p1124
aS'Agreement,'
p1125
aS'the'
p1126
aS'provisions'
p1127
aS'of'
p1128
aS'Sections'
p1129
aS'5.4,'
p1130
aS'7,'
p1131
aS'9,'
p1132
aS'10,'
p1133
aS'12,'
p1134
aS'13,'
p1135
aS'14,'
p1136
aS'16,'
p1137
aS'17,'
p1138
aS'18'
p1139
aS'and'
p1140
aS'the'
p1141
aS'relevant'
p1142
aS'sections'
p1143
aS'of'
p1144
aS'Articles'
p1145
aS'15'
p1146
aS'and'
p1147
aS'19'
p1148
aS'shall'
p1149
aS'remain'
p1150
aS'in'
p1151
aS'effect.'
p1152
asS'SENT_184'
p1153
(lp1154
S'12'
p1155
aS'ARTICLE'
p1156
aS'16'
p1157
aS'CONFIDENTIALITY'
p1158
aS'Each'
p1159
aS'party'
p1160
aS'will'
p1161
aS'protect'
p1162
aS'the'
p1163
aS"other's"
p1164
aS'Confidential'
p1165
aS'Information'
p1166
aS'in'
p1167
aS'accordance'
p1168
aS'with'
p1169
aS'the'
p1170
aS'terms'
p1171
aS'of'
p1172
aS'the'
p1173
aS'Master'
p1174
aS'Confidential'
p1175
aS'Disclosure'
p1176
aS'Agreement.'
p1177
asS'SENT_185'
p1178
(lp1179
S'ARTICLE'
p1180
aS'17'
p1181
aS'LIMITATION'
p1182
aS'OF'
p1183
aS'LIABILITY'
p1184
aS'EXCEPT'
p1185
aS'AS'
p1186
aS'EXPRESSLY'
p1187
aS'PROVIDED'
p1188
aS'IN'
p1189
aS'THIS'
p1190
aS'AGREEMENT,'
p1191
aS'AND'
p1192
aS'EXCEPT'
p1193
aS'AS'
p1194
aS'SET'
p1195
aS'FORTH'
p1196
aS'IN'
p1197
aS'ARTICLES'
p1198
aS'13'
p1199
aS'AND'
p1200
aS'14,'
p1201
aS'IN'
p1202
aS'NO'
p1203
aS'EVENT'
p1204
aS'SHALL'
p1205
aS'EITHER'
p1206
aS'PARTY'
p1207
aS'BE'
p1208
aS'LIABLE'
p1209
aS'TO'
p1210
aS'THE'
p1211
aS'OTHER'
p1212
aS'OR'
p1213
aS'ANY'
p1214
aS'OTHER'
p1215
aS'PERSON'
p1216
aS'FOR'
p1217
aS'ANY'
p1218
aS'SPECIAL,'
p1219
aS'INDIRECT,'
p1220
aS'INCIDENTAL,'
p1221
aS'OR'
p1222
aS'CONSEQUENTIAL'
p1223
aS'DAMAGES'
p1224
aS'OF'
p1225
aS'ANY'
p1226
aS'KIND,'
p1227
aS'INCLUDING'
p1228
aS'BUT'
p1229
aS'NOT'
p1230
aS'LIMITED'
p1231
aS'TO,'
p1232
aS'LOSS'
p1233
aS'OF'
p1234
aS'PROFITS'
p1235
aS'OR'
p1236
aS'DAMAGES'
p1237
aS'TO'
p1238
aS'THE'
p1239
aS'OTHER'
p1240
aS"PARTY'S"
p1241
aS'BUSINESS'
p1242
aS'REPUTATION'
p1243
aS'HOWEVER'
p1244
aS'CAUSED'
p1245
aS'AND'
p1246
aS'ON'
p1247
aS'ANY'
p1248
aS'THEORY'
p1249
aS'OF'
p1250
aS'LIABILITY,'
p1251
aS'WHETHER'
p1252
aS'IN'
p1253
aS'AN'
p1254
aS'ACTION'
p1255
aS'FOR'
p1256
aS'CONTRACT,'
p1257
aS'STRICT'
p1258
aS'LIABILITY'
p1259
aS'OR'
p1260
aS'TORT'
p1261
aS'(INCLUDING'
p1262
aS'NEGLIGENCE)'
p1263
aS'OR'
p1264
aS'OTHERWISE,'
p1265
aS'WHETHER'
p1266
aS'OR'
p1267
aS'NOT'
p1268
aS'THE'
p1269
aS'FIRST'
p1270
aS'PARTY'
p1271
aS'HAS'
p1272
aS'BEEN'
p1273
aS'ADVISED'
p1274
aS'OF'
p1275
aS'THE'
p1276
aS'POSSIBILITY'
p1277
aS'OF'
p1278
aS'SUCH'
p1279
aS'DAMAGE'
p1280
aS'AND'
p1281
aS'NOTWITHSTANDING'
p1282
aS'THE'
p1283
aS'FAILURE'
p1284
aS'OF'
p1285
aS'ESSENTIAL'
p1286
aS'PURPOSE'
p1287
aS'OF'
p1288
aS'ANY'
p1289
aS'REMEDY.'
p1290
asS'SENT_202'
p1291
(lp1292
S'Subject'
p1293
aS'to'
p1294
aS'the'
p1295
aS'foregoing,'
p1296
aS'this'
p1297
aS'Agreement'
p1298
aS'shall'
p1299
aS'be'
p1300
aS'binding'
p1301
aS'upon'
p1302
aS'and'
p1303
aS'inure'
p1304
aS'to'
p1305
aS'the'
p1306
aS'benefit'
p1307
aS'of'
p1308
aS'the'
p1309
aS'parties'
p1310
aS'hereto,'
p1311
aS'their'
p1312
aS'subsidiaries,'
p1313
aS'and'
p1314
aS'their'
p1315
aS'respective'
p1316
aS'successors'
p1317
aS'and'
p1318
aS'assigns.'
p1319
asS'SENT_178'
p1320
(lp1321
S'(c)'
p1322
aS'If'
p1323
aS'this'
p1324
aS'Agreement'
p1325
aS'is'
p1326
aS'terminated'
p1327
aS'by'
p1328
aS'Adaptec'
p1329
aS'pursuant'
p1330
aS'to'
p1331
aS'Section'
p1332
aS'15.3,'
p1333
aS'then'
p1334
aS'Adaptec'
p1335
aS'may'
p1336
aS'submit'
p1337
ag12
aS'claim'
p1338
aS'for'
p1339
aS'Inventory'
p1340
aS'in'
p1341
aS'accordance'
p1342
aS'with'
p1343
aS'Section'
p1344
aS'5.4.'
p1345
asS'SENT_99'
p1346
(lp1347
S'Upon'
p1348
aS'full'
p1349
aS'payment'
p1350
aS'for'
p1351
aS'such'
p1352
aS'Inventory'
p1353
aS'and'
p1354
aS'receipt'
p1355
aS'of'
p1356
aS'shipping'
p1357
aS'instructions,'
p1358
aS'the'
p1359
aS'Inventory'
p1360
aS'shall'
p1361
aS'be'
p1362
aS'Delivered'
p1363
aS'to'
p1364
aS'Roxio'
p1365
aS'and'
p1366
aS'shipped'
p1367
aS'freight'
p1368
aS'collect.'
p1369
asS'SENT_98'
p1370
(lp1371
S'Adaptec'
p1372
aS'shall'
p1373
aS'invoice'
p1374
aS'Roxio'
p1375
aS'for'
p1376
aS'such'
p1377
aS'Inventory'
p1378
aS'promptly'
p1379
aS'upon'
p1380
aS'determining'
p1381
aS'the'
p1382
aS'amount'
p1383
aS'of'
p1384
aS'the'
p1385
aS'claim.'
p1386
asS'SENT_126'
p1387
(lp1388
S'Adaptec'
p1389
aS'will'
p1390
aS'manufacture'
p1391
aS'and'
p1392
aS'inspect'
p1393
aS'the'
p1394
aS'Products'
p1395
aS'in'
p1396
aS'accordance'
p1397
aS'with'
p1398
aS'its'
p1399
aS'general'
p1400
aS'process'
p1401
aS'and'
p1402
aS'quality'
p1403
aS'procedures.'
p1404
asS'SENT_127'
p1405
(lp1406
S'8.2'
p1407
aS'ROXIO'
p1408
aS'INSPECTION.'
p1409
asS'SENT_120'
p1410
(lp1411
S'Roxio'
p1412
aS'will'
p1413
aS'pay'
p1414
aS'invoices'
p1415
aS'forthe'
p1416
aS'Services,'
p1417
aS'or'
p1418
aS'such'
p1419
aS'other'
p1420
aS'invoices'
p1421
aS'as'
p1422
aS'are'
p1423
aS'issued'
p1424
aS'under'
p1425
aS'this'
p1426
aS'Agreement,'
p1427
aS'including'
p1428
aS'invoices'
p1429
aS'for'
p1430
aS'scrapped'
p1431
aS'Inventory,'
p1432
aS'cancellation'
p1433
aS'charges,'
p1434
aS'shipping'
p1435
aS'costs,'
p1436
aS'inspection'
p1437
aS'expenses,'
p1438
aS'Product'
p1439
aS'modifications'
p1440
aS'and'
p1441
aS'transition'
p1442
aS'assistance,'
p1443
aS'within'
p1444
aS'thirty'
p1445
aS'(30)'
p1446
aS'days'
p1447
aS'of'
p1448
aS'receipt.'
p1449
asS'SENT_121'
p1450
(lp1451
S'Payment'
p1452
aS'of'
p1453
aS'invoices'
p1454
aS'shall'
p1455
aS'be'
p1456
aS'made'
p1457
aS'to'
p1458
aS'Adaptec.'
p1459
asS'SENT_122'
p1460
(lp1461
S'Payment'
p1462
aS'does'
p1463
aS'not'
p1464
aS'constitute'
p1465
aS'final'
p1466
aS'acceptance'
p1467
aS'of'
p1468
aS'the'
p1469
aS'Services'
p1470
aS'or'
p1471
aS'resulting'
p1472
aS'Products'
p1473
aS'and'
p1474
aS'is'
p1475
aS'subject'
p1476
aS'to'
p1477
aS'adjustments'
p1478
aS'for'
p1479
aS'errors,'
p1480
aS'shortages'
p1481
aS'and'
p1482
aS'defects'
p1483
aS'in'
p1484
aS'the'
p1485
aS'Products.'
p1486
asS'SENT_123'
p1487
(lp1488
S'Performance'
p1489
aS'of'
p1490
aS'the'
p1491
aS'Services'
p1492
aS'shall'
p1493
aS'at'
p1494
aS'all'
p1495
aS'times'
p1496
aS'be'
p1497
aS'subject'
p1498
aS'to'
p1499
aS'the'
p1500
aS'approval'
p1501
aS'of'
p1502
aS"Adaptec's"
p1503
aS'credit'
p1504
aS'department'
p1505
aS'and'
p1506
aS'Adaptec'
p1507
aS'may'
p1508
aS'at'
p1509
aS'any'
p1510
aS'time'
p1511
aS'decline'
p1512
aS'to'
p1513
aS'perform'
p1514
aS'any'
p1515
aS'Services,'
p1516
aS'or'
p1517
aS'Deliver'
p1518
aS'any'
p1519
aS'Products,'
p1520
aS'except'
p1521
aS'upon'
p1522
aS'receipt'
p1523
aS'of'
p1524
aS'payment,'
p1525
aS'or'
p1526
aS'upon'
p1527
aS'terms'
p1528
aS'and'
p1529
aS'conditions'
p1530
aS'or'
p1531
aS'security'
p1532
aS'satisfactory'
p1533
aS'to'
p1534
aS'Adaptec.'
p1535
asS'SENT_91'
p1536
(lp1537
S'5.3'
p1538
aS'SERVICE'
p1539
aS'ORDER'
p1540
aS'ADJUSTMENTS.'
p1541
asS'SENT_90'
p1542
(lp1543
S'Roxio'
p1544
aS'recognizes'
p1545
aS'that'
p1546
aS'its'
p1547
aS'placement'
p1548
aS'of'
p1549
aS'Service'
p1550
aS'Orders'
p1551
aS'in'
p1552
aS'accordance'
p1553
aS'with'
p1554
aS'the'
p1555
aS'Guidelines'
p1556
aS'is'
p1557
ag12
aS'material'
p1558
aS'term'
p1559
aS'of'
p1560
aS'this'
p1561
aS'Agreement,'
p1562
aS'and'
p1563
aS'acknowledges'
p1564
aS'its'
p1565
aS'obligation'
p1566
aS'to'
p1567
aS'adjust'
p1568
aS'its'
p1569
aS'forecast'
p1570
aS'such'
p1571
aS'that'
p1572
aS'no'
p1573
aS'Product'
p1574
aS'purchases'
p1575
aS'are'
p1576
aS'forecast'
p1577
aS'for'
p1578
aS'any'
p1579
aS'period'
p1580
aS'during'
p1581
aS'which'
p1582
aS'Roxio'
p1583
aS'will'
p1584
aS'not'
p1585
aS'be'
p1586
aS'able'
p1587
aS'to'
p1588
aS'place'
p1589
aS'Service'
p1590
aS'Orders'
p1591
aS'in'
p1592
aS'accordance'
p1593
aS'with'
p1594
aS'the'
p1595
aS'Guidelines.'
p1596
asS'SENT_93'
p1597
(lp1598
S'Roxio'
p1599
aS'can'
p1600
aS'change'
p1601
aS'the'
p1602
aS'"ship'
p1603
aS'to"'
p1604
aS'location'
p1605
aS'and/or'
p1606
aS'the'
p1607
aS'scheduled'
p1608
aS'Delivery'
p1609
aS'date'
p1610
aS'until'
p1611
aS'72'
p1612
aS'hours'
p1613
aS'prior'
p1614
aS'to'
p1615
aS'the'
p1616
aS'expected'
p1617
aS'shipping'
p1618
aS'date;'
p1619
aS'however,'
p1620
aS'such'
p1621
aS'adjustment'
p1622
aS'may'
p1623
aS'be'
p1624
aS'subject'
p1625
aS'to'
p1626
aS'additional'
p1627
aS'costs'
p1628
aS'or'
p1629
aS'charges.'
p1630
asS'SENT_92'
p1631
(lp1632
S'Roxio'
p1633
aS'may'
p1634
aS'not'
p1635
aS'cancel'
p1636
aS'any'
p1637
aS'Products'
p1638
aS'for'
p1639
aS'which'
p1640
ag12
aS'Service'
p1641
aS'Order'
p1642
aS'has'
p1643
aS'been'
p1644
aS'received'
p1645
aS'by'
p1646
aS'Adaptec.'
p1647
asS'SENT_95'
p1648
(lp1649
S'Any'
p1650
aS'requests'
p1651
aS'to'
p1652
aS'modify'
p1653
ag12
aS'Service'
p1654
aS'Order'
p1655
aS'within'
p1656
aS'72'
p1657
aS'hours'
p1658
aS'of'
p1659
aS'the'
p1660
aS'scheduled'
p1661
aS'shipping'
p1662
aS'date'
p1663
aS'shall'
p1664
aS'be'
p1665
aS'directed'
p1666
aS'to'
p1667
aS"Adaptec's"
p1668
aS'manager'
p1669
aS'of'
p1670
aS'demand'
p1671
aS'fulfillment,'
p1672
aS'or'
p1673
aS'his'
p1674
aS'or'
p1675
aS'her'
p1676
aS'designee,'
p1677
aS'and'
p1678
aS'will'
p1679
aS'be'
p1680
aS'handled'
p1681
aS'on'
p1682
ag12
aS'case'
p1683
aS'by'
p1684
aS'case'
p1685
aS'basis.'
p1686
asS'SENT_94'
p1687
(lp1688
S'Roxio'
p1689
aS'may'
p1690
aS'not'
p1691
aS'modify'
p1692
ag12
aS'Service'
p1693
aS'Order'
p1694
aS'within'
p1695
aS'72'
p1696
aS'hours'
p1697
aS'of'
p1698
aS'the'
p1699
aS'scheduled'
p1700
aS'shipping'
p1701
aS'date,'
p1702
aS'without'
p1703
aS"Adaptec's"
p1704
aS'prior'
p1705
aS'consent.'
p1706
asS'SENT_97'
p1707
(lp1708
S'Roxio'
p1709
aS'shall'
p1710
aS'be'
p1711
aS'liable'
p1712
aS'to'
p1713
aS'purchase'
p1714
aS'all'
p1715
aS'Inventory'
p1716
aS'purchased'
p1717
aS'to'
p1718
aS'forecast'
p1719
aS'or'
p1720
aS'built'
p1721
aS'to'
p1722
ag12
aS'Service'
p1723
aS'Order'
p1724
aS'for'
p1725
aS'which'
p1726
aS'Delivery'
p1727
aS'of'
p1728
aS'the'
p1729
aS'relevant'
p1730
aS'Product'
p1731
aS'has'
p1732
aS'not'
p1733
aS'been'
p1734
aS'taken'
p1735
aS'upon'
p1736
aS'the'
p1737
aS'expiration'
p1738
aS'of'
p1739
aS'the'
p1740
aS'Term,'
p1741
aS'or'
p1742
aS'in'
p1743
aS'the'
p1744
aS'event'
p1745
aS'of'
p1746
aS'termination'
p1747
aS'by'
p1748
aS'Roxio'
p1749
aS'pursuant'
p1750
aS'to'
p1751
aS'Section'
p1752
aS'15.1'
p1753
aS'or'
p1754
aS'termination'
p1755
aS'by'
p1756
aS'Adaptec'
p1757
aS'pursuant'
p1758
aS'to'
p1759
aS'Section'
p1760
aS'15.3.'
p1761
asS'SENT_96'
p1762
(lp1763
S'6'
p1764
aS'5.4'
p1765
aS'LIABILITY'
p1766
aS'FOR'
p1767
aS'INVENTORY.'
p1768
asS'SENT_11'
p1769
(lp1770
S'1.5'
p1771
aS'DELIVER,'
p1772
aS'DELIVERED'
p1773
aS'OR'
p1774
aS'DELIVERY.'
p1775
asS'SENT_10'
p1776
(lp1777
S'"Customer"'
p1778
aS'means'
p1779
aS"Roxio's"
p1780
aS'customer'
p1781
aS'who'
p1782
aS'is'
p1783
aS'purchasing'
p1784
ag12
aS'Product'
p1785
aS'and'
p1786
aS'who'
p1787
aS'is'
p1788
aS'identified'
p1789
aS'in'
p1790
aS'the'
p1791
aS'Service'
p1792
aS'Order'
p1793
aS'or'
p1794
aS'in'
p1795
ag12
aS'subsequent'
p1796
aS'written'
p1797
aS'communication'
p1798
aS'from'
p1799
aS'Roxio'
p1800
aS'designating'
p1801
aS'the'
p1802
aS'"ship'
p1803
aS'to"'
p1804
aS'point.'
p1805
asS'SENT_13'
p1806
(lp1807
S'1.6'
p1808
aS'DELIVERY'
p1809
aS'POINT.'
p1810
asS'SENT_12'
p1811
(lp1812
S'"Deliver,'
p1813
aS'Delivered'
p1814
aS'or'
p1815
aS'Delivery"'
p1816
aS'means'
p1817
aS'the'
p1818
aS'delivery'
p1819
aS'by'
p1820
aS'Adaptec'
p1821
aS'of'
p1822
aS'the'
p1823
aS'Products'
p1824
aS'manufactured'
p1825
aS'pursuant'
p1826
aS'to'
p1827
ag12
aS'particular'
p1828
aS'Service'
p1829
aS'Order'
p1830
aS'to'
p1831
aS'the'
p1832
aS'Delivery'
p1833
aS'Point'
p1834
aS'for'
p1835
aS'shipment'
p1836
aS'or'
p1837
aS'pull'
p1838
aS'in'
p1839
aS'accordance'
p1840
aS'with'
p1841
aS"Roxio's"
p1842
aS'instructions,'
p1843
aS'as'
p1844
aS'provided'
p1845
aS'in'
p1846
aS'accordance'
p1847
aS'with'
p1848
aS'the'
p1849
aS'Guidelines.'
p1850
asS'SENT_15'
p1851
(lp1852
S'1.7'
p1853
aS'FINISHED'
p1854
aS'GOODS'
p1855
aS'INVENTORY.'
p1856
asS'SENT_14'
p1857
(lp1858
S'"Delivery'
p1859
aS'Point"'
p1860
aS'means'
p1861
aS'(a)'
p1862
aS'the'
p1863
aS'San'
p1864
aS'Francisco'
p1865
aS'Bay'
p1866
aS'Area,'
p1867
aS'with'
p1868
aS'respect'
p1869
aS'to'
p1870
aS'Products'
p1871
aS'destined'
p1872
aS'for'
p1873
aS'shipment'
p1874
aS'to'
p1875
ag12
aS'location'
p1876
aS'in'
p1877
aS'the'
p1878
aS'Americas,'
p1879
aS'including'
p1880
aS'the'
p1881
aS'United'
p1882
aS'States,'
p1883
aS'Canada,'
p1884
aS'Mexico'
p1885
aS'and'
p1886
aS'South'
p1887
aS'America;'
p1888
aS'(b)'
p1889
aS'Singapore,'
p1890
aS'with'
p1891
aS'respect'
p1892
aS'to'
p1893
aS'Products'
p1894
aS'destined'
p1895
aS'for'
p1896
aS'shipment'
p1897
aS'to'
p1898
ag12
aS'location'
p1899
aS'outside'
p1900
aS'the'
p1901
aS'United'
p1902
aS'States;'
p1903
aS'and'
p1904
aS'(c)'
p1905
aS'the'
p1906
aS'Roxio'
p1907
aS'Warehouse,'
p1908
aS'with'
p1909
aS'respect'
p1910
aS'to'
p1911
aS'Products'
p1912
aS'to'
p1913
aS'be'
p1914
aS'held'
p1915
aS'at'
p1916
aS'the'
p1917
aS'Roxio'
p1918
aS'Warehouse'
p1919
aS'for'
p1920
aS'pull'
p1921
aS'by'
p1922
aS'the'
p1923
aS'Customer.'
p1924
asS'SENT_17'
p1925
(lp1926
S'1.8'
p1927
aS'GUIDELINES.'
p1928
asS'SENT_16'
p1929
(lp1930
S'"Finished'
p1931
aS'Goods'
p1932
aS'Inventory"'
p1933
aS'means'
p1934
aS'the'
p1935
aS'inventory'
p1936
aS'of'
p1937
aS'completed'
p1938
aS'goods'
p1939
aS'consistent'
p1940
aS'with'
p1941
aS'the'
p1942
aS'outstanding'
p1943
aS'Service'
p1944
aS'Orders.'
p1945
asS'SENT_19'
p1946
(lp1947
S'1.9'
p1948
aS'INVENTORY.'
p1949
asS'SENT_18'
p1950
(lp1951
S'"Guidelines"'
p1952
aS'means'
p1953
aS'the'
p1954
aS'written'
p1955
aS'guidelines'
p1956
aS'provided'
p1957
aS'by'
p1958
aS'Adaptec'
p1959
aS'to'
p1960
aS'Roxio,'
p1961
aS'as'
p1962
aS'may'
p1963
aS'be'
p1964
aS'amended'
p1965
aS'from'
p1966
aS'time'
p1967
aS'to'
p1968
aS'time'
p1969
aS'upon'
p1970
aS'the'
p1971
aS'agreement'
p1972
aS'of'
p1973
aS'the'
p1974
aS'parties,'
p1975
aS'with'
p1976
aS'respect'
p1977
aS'to'
p1978
aS'(a)'
p1979
aS'the'
p1980
aS'placement'
p1981
aS'of'
p1982
aS'Service'
p1983
aS'Orders'
p1984
aS'and'
p1985
aS'adjustments'
p1986
aS'thereto,'
p1987
aS'and'
p1988
aS'(b)'
p1989
aS'the'
p1990
aS'provision'
p1991
aS'of'
p1992
aS'forecasts.'
p1993
asS'SENT_204'
p1994
(lp1995
S'INDEPENDENTLY'
p1996
aS'OF'
p1997
aS'ANY'
p1998
aS'OTHER'
p1999
aS'REMEDY'
p2000
aS'LIMITATION'
p2001
aS'HEREOF'
p2002
aS'AND'
p2003
aS'NOTWITHSTANDING'
p2004
aS'ANY'
p2005
aS'FAILURE'
p2006
aS'OF'
p2007
aS'THE'
p2008
aS'ESSENTIAL'
p2009
aS'PURPOSE'
p2010
aS'OF'
p2011
aS'ANY'
p2012
aS'SUCH'
p2013
aS'LIMITED'
p2014
aS'REMEDY,'
p2015
aS'THE'
p2016
aS'PARTIES'
p2017
aS'AGREE'
p2018
aS'THAT'
p2019
aS'IN'
p2020
aS'NO'
p2021
aS'EVENT'
p2022
aS'SHALL'
p2023
aS'ADAPTEC'
p2024
aS'BE'
p2025
aS'LIABLE'
p2026
aS'FOR'
p2027
aS'SPECIAL,'
p2028
aS'INCIDENTAL'
p2029
aS'OR'
p2030
aS'CONSEQUENTIAL'
p2031
aS'DAMAGES'
p2032
aS'OF'
p2033
aS'ANY'
p2034
aS'KIND'
p2035
aS'UNDER'
p2036
aS'THIS'
p2037
aS'AGREEMENT.'
p2038
asS'SENT_239'
p2039
(lp2040
S'19.14'
p2041
aS'RELATIONSHIP.'
p2042
asS'SENT_169'
p2043
(lp2044
S'In'
p2045
aS'the'
p2046
aS'event'
p2047
aS'Roxio'
p2048
aS'terminates'
p2049
aS'this'
p2050
aS'Agreement'
p2051
aS'pursuant'
p2052
aS'to'
p2053
aS'Section'
p2054
aS'15.1,'
p2055
aS'Adaptec'
p2056
aS'may'
p2057
aS'submit'
p2058
ag12
aS'written'
p2059
aS'claim'
p2060
aS'for'
p2061
aS'Inventory'
p2062
aS'in'
p2063
aS'accordance'
p2064
aS'with'
p2065
aS'Section'
p2066
aS'5.4.'
p2067
asS'SENT_171'
p2068
(lp2069
S'Either'
p2070
aS'party'
p2071
aS'may'
p2072
aS'suspend'
p2073
aS'its'
p2074
aS'performance'
p2075
aS'and/or'
p2076
aS'terminate'
p2077
aS'this'
p2078
aS'Agreement'
p2079
aS'immediately'
p2080
aS'upon'
p2081
aS'written'
p2082
aS'notice'
p2083
aS'at'
p2084
aS'any'
p2085
aS'time'
p2086
aS'if:'
p2087
aS'(a)'
p2088
aS'The'
p2089
aS'other'
p2090
aS'party'
p2091
aS'is'
p2092
aS'in'
p2093
aS'material'
p2094
aS'breach'
p2095
aS'of'
p2096
aS'any'
p2097
aS'warranty,'
p2098
aS'term,'
p2099
aS'condition'
p2100
aS'or'
p2101
aS'covenant'
p2102
aS'of'
p2103
aS'this'
p2104
aS'Agreement'
p2105
aS'other'
p2106
aS'than'
p2107
aS'those'
p2108
aS'contained'
p2109
aS'in'
p2110
aS'Article'
p2111
aS'16'
p2112
aS'and'
p2113
aS'fails'
p2114
aS'to'
p2115
aS'cure'
p2116
aS'that'
p2117
aS'breach'
p2118
aS'within'
p2119
aS'thirty'
p2120
aS'(30)'
p2121
aS'days'
p2122
aS'after'
p2123
aS'written'
p2124
aS'notice'
p2125
aS'of'
p2126
aS'that'
p2127
aS'breach'
p2128
aS'and'
p2129
aS'of'
p2130
aS'the'
p2131
aS'first'
p2132
aS"party's"
p2133
aS'intention'
p2134
aS'to'
p2135
aS'suspend'
p2136
aS'its'
p2137
aS'performance'
p2138
aS'or'
p2139
aS'terminate;'
p2140
aS'11'
p2141
aS'(b)'
p2142
aS'The'
p2143
aS'other'
p2144
aS'party'
p2145
aS'is'
p2146
aS'in'
p2147
aS'material'
p2148
aS'breach'
p2149
aS'of'
p2150
aS'any'
p2151
aS'warranty,'
p2152
aS'term,'
p2153
aS'condition'
p2154
aS'or'
p2155
aS'covenant'
p2156
aS'of'
p2157
aS'Article'
p2158
aS'16;'
p2159
aS'or'
p2160
aS'(c)'
p2161
aS'The'
p2162
aS'other'
p2163
aS'party:'
p2164
aS'(i)'
p2165
aS'becomes'
p2166
aS'insolvent;'
p2167
aS'(ii)'
p2168
aS'admits'
p2169
aS'in'
p2170
aS'writing'
p2171
aS'its'
p2172
aS'insolvency'
p2173
aS'or'
p2174
aS'inability'
p2175
aS'to'
p2176
aS'pay'
p2177
aS'its'
p2178
aS'debts'
p2179
aS'or'
p2180
aS'perform'
p2181
aS'its'
p2182
aS'obligations'
p2183
aS'as'
p2184
aS'they'
p2185
aS'mature;'
p2186
aS'or'
p2187
aS'(iii)'
p2188
aS'makes'
p2189
ag12
aS'general'
p2190
aS'assignment'
p2191
aS'for'
p2192
aS'the'
p2193
aS'benefit'
p2194
aS'of'
p2195
aS'creditors.'
p2196
asS'SENT_137'
p2197
(lp2198
S'Adaptec'
p2199
aS'makes'
p2200
aS'no'
p2201
aS'warranty'
p2202
aS'with'
p2203
aS'respect'
p2204
aS'to'
p2205
aS'the'
p2206
aS'Services'
p2207
aS'or'
p2208
aS'the'
p2209
aS'results'
p2210
aS'thereof,'
p2211
aS'except'
p2212
aS'that'
p2213
aS'Adaptec'
p2214
aS'warrants,'
p2215
aS'to'
p2216
aS'Roxio'
p2217
aS'only,'
p2218
aS'that'
p2219
aS'the'
p2220
aS'media'
p2221
aS'upon'
p2222
aS'which'
p2223
aS'the'
p2224
aS'Products'
p2225
aS'are'
p2226
aS'reproduced'
p2227
aS'will,'
p2228
aS'for'
p2229
ag12
aS'period'
p2230
aS'of'
p2231
aS'ninety'
p2232
aS'(90)'
p2233
aS'days'
p2234
aS'commencing'
p2235
aS'on'
p2236
aS'the'
p2237
aS'date'
p2238
aS'of'
p2239
aS'Delivery'
p2240
aS'or'
p2241
aS'pull'
p2242
aS'from'
p2243
aS'the'
p2244
aS'Roxio'
p2245
aS'Warehouse,'
p2246
aS'whichever'
p2247
aS'is'
p2248
aS'later'
p2249
aS'("Warranty'
p2250
aS'Period"),'
p2251
aS'be'
p2252
aS'free'
p2253
aS'from'
p2254
aS'defects'
p2255
aS'in'
p2256
aS'material'
p2257
aS'and'
p2258
aS'workmanship.'
p2259
asS'SENT_136'
p2260
(lp2261
S'ARTICLE'
p2262
aS'10'
p2263
aS'WARRANTY'
p2264
aS'10.1'
p2265
aS'MATERIALS'
p2266
aS'AND'
p2267
aS'WORKMANSHIP.'
p2268
asS'SENT_135'
p2269
(lp2270
S'No'
p2271
aS'Product'
p2272
aS'shall'
p2273
aS'be'
p2274
aS'returned'
p2275
aS'to'
p2276
aS'Adaptec'
p2277
aS'without'
p2278
aS'compliance'
p2279
aS'with'
p2280
aS"Adaptec's"
p2281
aS'Return'
p2282
aS'Material'
p2283
aS'Authorization'
p2284
aS'("RMA")'
p2285
aS'procedures.'
p2286
asS'SENT_134'
p2287
(lp2288
S'In'
p2289
aS'the'
p2290
aS'event'
p2291
ag12
aS'Product'
p2292
aS'appears'
p2293
aS'not'
p2294
aS'to'
p2295
aS'conform'
p2296
aS'to'
p2297
aS'the'
p2298
aS'Specifications'
p2299
aS'or'
p2300
ag12
aS'shipment'
p2301
aS'does'
p2302
aS'not'
p2303
aS'conform'
p2304
aS'to'
p2305
aS'the'
p2306
aS'requirements'
p2307
aS'of'
p2308
ag12
aS'Service'
p2309
aS'Order,'
p2310
aS'Roxio'
p2311
aS'shall'
p2312
aS'promptly'
p2313
aS'notify'
p2314
aS'Adaptec'
p2315
aS'and'
p2316
aS'afford'
p2317
aS'Adaptec'
p2318
ag12
aS'reasonable'
p2319
aS'opportunity'
p2320
aS'to'
p2321
aS'inspect'
p2322
aS'such'
p2323
aS'Product.'
p2324
asS'SENT_133'
p2325
(lp2326
S'8'
p2327
aS'ARTICLE'
p2328
ag88
aS'ACCEPTANCE'
p2329
aS'AND'
p2330
aS'REJECTION'
p2331
aS'OF'
p2332
aS'PRODUCTS'
p2333
aS'Any'
p2334
aS'Product'
p2335
aS'Delivered'
p2336
aS'hereunder'
p2337
aS'shall'
p2338
aS'be'
p2339
aS'deemed'
p2340
aS'accepted'
p2341
aS'by'
p2342
aS'Roxio'
p2343
aS'unless'
p2344
aS'Adaptec'
p2345
aS'receives'
p2346
aS'written'
p2347
aS'notice'
p2348
aS'of'
p2349
ag12
aS'defect'
p2350
aS'or'
p2351
aS'nonconformity'
p2352
aS'with'
p2353
aS'respect'
p2354
aS'to'
p2355
aS'such'
p2356
aS'Product'
p2357
aS'within'
p2358
aS'thirty'
p2359
aS'(30)'
p2360
aS'days'
p2361
aS'of'
p2362
aS'shipment'
p2363
aS'from'
p2364
aS'the'
p2365
aS'Delivery'
p2366
aS'Point'
p2367
aS'to'
p2368
aS'Roxio'
p2369
aS'or'
p2370
aS'its'
p2371
aS'Customer,'
p2372
aS'or,'
p2373
aS'if'
p2374
aS'shipped'
p2375
aS'to'
p2376
aS'the'
p2377
aS'Roxio'
p2378
aS'Warehouse,'
p2379
aS'within'
p2380
aS'thirty'
p2381
aS'(30)'
p2382
aS'days'
p2383
aS'of'
p2384
aS'receipt'
p2385
aS'at'
p2386
aS'the'
p2387
aS'Roxio'
p2388
aS'Warehouse.'
p2389
asS'SENT_132'
p2390
(lp2391
S'In'
p2392
aS'the'
p2393
aS'event'
p2394
aS'Adaptec'
p2395
aS'bears'
p2396
aS'any'
p2397
aS'costs'
p2398
aS'as'
p2399
ag12
aS'consequence'
p2400
aS'of'
p2401
aS'the'
p2402
aS'inspection,'
p2403
aS'Roxio'
p2404
aS'shall'
p2405
aS'reimburse'
p2406
aS'Adaptec'
p2407
aS'for'
p2408
aS'its'
p2409
aS'actual'
p2410
aS'expenses,'
p2411
aS'plus'
p2412
aS'five'
p2413
aS'percent'
p2414
aS'(5%).'
p2415
asS'SENT_131'
p2416
(lp2417
S'Adaptec'
p2418
aS'shall'
p2419
aS'not'
p2420
aS'be'
p2421
aS'responsible'
p2422
aS'for'
p2423
aS'any'
p2424
aS'delay'
p2425
aS'in'
p2426
aS'Delivery'
p2427
aS'or'
p2428
aS'shipment'
p2429
aS'of'
p2430
aS'the'
p2431
aS'affected'
p2432
aS'Products'
p2433
aS'that'
p2434
aS'results'
p2435
aS'from'
p2436
aS'the'
p2437
aS'inspection,'
p2438
aS'and'
p2439
aS'Roxio'
p2440
aS'shall'
p2441
aS'bear'
p2442
aS'all'
p2443
aS'costs'
p2444
aS'of'
p2445
aS'the'
p2446
aS'inspection.'
p2447
asS'SENT_130'
p2448
(lp2449
S'Any'
p2450
aS'such'
p2451
aS'inspection'
p2452
aS'shall'
p2453
aS'be'
p2454
aS'subject'
p2455
aS'to'
p2456
aS'reasonable'
p2457
aS'prior'
p2458
aS'written'
p2459
aS'notice'
p2460
aS'given'
p2461
aS'to'
p2462
aS'Adaptec'
p2463
aS'by'
p2464
aS'Roxio'
p2465
aS'and'
p2466
aS'to'
p2467
aS'the'
p2468
aS'execution'
p2469
aS'of'
p2470
ag12
aS'reasonable'
p2471
aS'form'
p2472
aS'of'
p2473
aS'nondisclosure'
p2474
aS'agreement'
p2475
aS'by'
p2476
aS'Roxio'
p2477
aS'and'
p2478
aS'any'
p2479
aS'approved'
p2480
aS'representative.'
p2481
asS'SENT_230'
p2482
(lp2483
S'Neither'
p2484
aS'of'
p2485
aS'the'
p2486
aS'parties'
p2487
aS'shall'
p2488
aS'be'
p2489
aS'deemed'
p2490
aS'to'
p2491
aS'be'
p2492
aS'in'
p2493
aS'default'
p2494
aS'of'
p2495
aS'this'
p2496
aS'Agreement'
p2497
aS'to'
p2498
aS'the'
p2499
aS'extent'
p2500
aS'any'
p2501
aS'failure'
p2502
aS'to'
p2503
aS'perform'
p2504
aS'hereunder'
p2505
aS'is'
p2506
ag12
aS'result'
p2507
aS'of'
p2508
aS'conditions'
p2509
aS'beyond'
p2510
aS'the'
p2511
aS'other'
p2512
aS"party's"
p2513
aS'reasonable'
p2514
aS'control,'
p2515
aS'including'
p2516
aS'but'
p2517
aS'not'
p2518
aS'limited'
p2519
aS'to,'
p2520
aS'acts'
p2521
aS'of'
p2522
aS'God,'
p2523
aS'war,'
p2524
aS'strikes,'
p2525
aS'fires,'
p2526
aS'floods,'
p2527
aS'earthquakes,'
p2528
aS'work'
p2529
aS'stoppages'
p2530
aS'and'
p2531
aS'embargoes,'
p2532
aS'material'
p2533
aS'shortages,'
p2534
aS'subcontractor'
p2535
aS'delays,'
p2536
aS'acts'
p2537
aS'of'
p2538
aS'any'
p2539
aS'governmental'
p2540
aS'entity,'
p2541
aS'equipment'
p2542
aS'or'
p2543
aS'other'
p2544
aS'facilities'
p2545
aS'failures'
p2546
aS'(which'
p2547
aS'delays'
p2548
aS'or'
p2549
aS'failures'
p2550
aS'are'
p2551
aS'beyond'
p2552
aS'the'
p2553
aS'reasonable'
p2554
aS'control,'
p2555
aS'without'
p2556
aS'negligence,'
p2557
aS'of'
p2558
aS'the'
p2559
aS'defaulting'
p2560
aS'party),'
p2561
aS'and'
p2562
aS'neither'
p2563
aS'party'
p2564
aS'shall'
p2565
aS'have'
p2566
aS'the'
p2567
aS'right'
p2568
aS'to'
p2569
aS'terminate'
p2570
aS'this'
p2571
aS'Agreement'
p2572
aS'for'
p2573
aS'any'
p2574
aS'such'
p2575
aS'delay'
p2576
aS'or'
p2577
aS'default'
p2578
aS'on'
p2579
aS'the'
p2580
aS'part'
p2581
aS'of'
p2582
aS'the'
p2583
aS'other'
p2584
aS'party.'
p2585
asS'SENT_231'
p2586
(lp2587
S'19.11'
p2588
aS'ENTIRE'
p2589
aS'AGREEMENT.'
p2590
asS'SENT_232'
p2591
(lp2592
S'This'
p2593
aS'Agreement,'
p2594
aS'the'
p2595
aS'Master'
p2596
aS'Separation'
p2597
aS'and'
p2598
aS'Distribution'
p2599
aS'Agreement'
p2600
aS'and'
p2601
aS'the'
p2602
aS'other'
p2603
aS'Ancillary'
p2604
aS'Agreements'
p2605
aS'and'
p2606
aS'the'
p2607
aS'Exhibits'
p2608
aS'and'
p2609
aS'Schedules'
p2610
aS'referenced'
p2611
aS'or'
p2612
aS'attached'
p2613
aS'hereto'
p2614
aS'and'
p2615
aS'thereto,'
p2616
aS'constitute'
p2617
aS'the'
p2618
aS'entire'
p2619
aS'agreement'
p2620
aS'between'
p2621
aS'the'
p2622
aS'parties'
p2623
aS'with'
p2624
aS'respect'
p2625
aS'to'
p2626
aS'the'
p2627
aS'subject'
p2628
aS'matter'
p2629
aS'hereof'
p2630
aS'and'
p2631
aS'shall'
p2632
aS'supersede'
p2633
aS'all'
p2634
aS'prior'
p2635
aS'written'
p2636
aS'and'
p2637
aS'oral'
p2638
aS'and'
p2639
aS'all'
p2640
aS'contemporaneous'
p2641
aS'oral'
p2642
aS'agreements'
p2643
aS'and'
p2644
aS'understandings'
p2645
aS'with'
p2646
aS'respect'
p2647
aS'to'
p2648
aS'the'
p2649
aS'subject'
p2650
aS'matter'
p2651
aS'hereof.'
p2652
asS'SENT_233'
p2653
(lp2654
S'This'
p2655
aS'Agreement'
p2656
aS'shall'
p2657
aS'prevail'
p2658
aS'in'
p2659
aS'the'
p2660
aS'event'
p2661
aS'of'
p2662
aS'any'
p2663
aS'conflicting'
p2664
aS'terms'
p2665
aS'or'
p2666
aS'legends'
p2667
aS'which'
p2668
aS'may'
p2669
aS'appear'
p2670
aS'on'
p2671
aS'any'
p2672
aS'portion'
p2673
aS'of'
p2674
aS'the'
p2675
aS'Assigned'
p2676
aS'Technology'
p2677
aS'or'
p2678
aS'the'
p2679
aS'Licensed'
p2680
aS'Technology.'
p2681
asS'SENT_234'
p2682
(lp2683
S'19.12'
p2684
aS'CONFLICTING'
p2685
aS'AGREEMENTS.'
p2686
asS'SENT_235'
p2687
(lp2688
S'In'
p2689
aS'the'
p2690
aS'event'
p2691
aS'of'
p2692
ag12
aS'conflict'
p2693
aS'between'
p2694
aS'this'
p2695
aS'Agreement'
p2696
aS'and'
p2697
aS'the'
p2698
aS'Master'
p2699
aS'Separation'
p2700
aS'and'
p2701
aS'Distribution'
p2702
aS'Agreement'
p2703
aS'or'
p2704
aS'any'
p2705
aS'Ancillary'
p2706
aS'Agreement'
p2707
aS'executed'
p2708
aS'in'
p2709
aS'connection'
p2710
aS'herewith,'
p2711
aS'the'
p2712
aS'provisions'
p2713
aS'of'
p2714
aS'this'
p2715
aS'Agreement'
p2716
aS'shall'
p2717
aS'prevail.'
p2718
asS'SENT_139'
p2719
(lp2720
S'If'
p2721
aS'any'
p2722
aS'Product'
p2723
aS'is'
p2724
aS'found'
p2725
aS'to'
p2726
aS'breach'
p2727
aS'the'
p2728
aS'warranty'
p2729
aS'specified'
p2730
aS'in'
p2731
aS'Section'
p2732
aS'10.1'
p2733
aS'during'
p2734
aS'the'
p2735
aS'Warranty'
p2736
aS'Period,'
p2737
aS'Roxio'
p2738
aS'may'
p2739
aS'return,'
p2740
aS'or'
p2741
aS'direct'
p2742
aS'its'
p2743
aS'Customer'
p2744
aS'to'
p2745
aS'return,'
p2746
aS'the'
p2747
aS'Product'
p2748
aS'to'
p2749
aS'Adaptec,'
p2750
aS'and'
p2751
aS'Adaptec'
p2752
aS'shall,'
p2753
aS'at'
p2754
aS"Adaptec's"
p2755
aS'option'
p2756
aS'and'
p2757
aS'expense,'
p2758
aS'promptly'
p2759
aS'(a)'
p2760
aS'replace'
p2761
aS'such'
p2762
aS'defective'
p2763
aS'Product'
p2764
aS'and'
p2765
aS'return'
p2766
aS'the'
p2767
aS'replacement'
p2768
aS'unit'
p2769
aS'to'
p2770
aS'Roxio,'
p2771
aS'or'
p2772
aS'(b)'
p2773
aS'refund'
p2774
aS'or'
p2775
aS'credit'
p2776
aS'to'
p2777
aS'Roxio'
p2778
aS'the'
p2779
aS'Service'
p2780
aS'Fee'
p2781
aS'paid'
p2782
aS'for'
p2783
aS'the'
p2784
aS'defective'
p2785
aS'Product.'
p2786
asS'SENT_138'
p2787
(lp2788
S'10.2'
p2789
aS'WARRANTY'
p2790
aS'REPLACEMENT.'
p2791
asS'SENT_236'
p2792
(lp2793
S'16'
p2794
aS'19.13'
p2795
aS'CONTROLLING'
p2796
aS'DOCUMENT.'
p2797
asS'SENT_237'
p2798
(lp2799
S'All'
p2800
aS'Service'
p2801
aS'Orders'
p2802
aS'for'
p2803
aS'the'
p2804
aS'Products'
p2805
aS'shall'
p2806
aS'be'
p2807
aS'governed'
p2808
aS'by'
p2809
aS'this'
p2810
aS'Agreement.'
p2811
asS'SENT_168'
p2812
(lp2813
S'15.2'
p2814
aS'EFFECT'
p2815
aS'OF'
p2816
aS'TERMINATION'
p2817
aS'WITHOUT'
p2818
aS'CAUSE.'
p2819
asS'SENT_245'
p2820
(lp2821
S'IN'
p2822
aS'WITNESS'
p2823
aS'WHEREOF,'
p2824
aS'the'
p2825
aS'parties'
p2826
aS'have'
p2827
aS'caused'
p2828
aS'this'
p2829
aS'Agreement'
p2830
aS'to'
p2831
aS'be'
p2832
aS'executed'
p2833
aS'by'
p2834
aS'their'
p2835
aS'duly'
p2836
aS'authorized'
p2837
aS'representatives'
p2838
aS'as'
p2839
aS'of'
p2840
aS'the'
p2841
aS'Separation'
p2842
aS'Date.'
p2843
asS'SENT_244'
p2844
(lp2845
S'Each'
p2846
aS'multiple'
p2847
aS'copy'
p2848
aS'shall'
p2849
aS'be'
p2850
aS'deemed'
p2851
aS'an'
p2852
aS'original,'
p2853
aS'but'
p2854
aS'all'
p2855
aS'multiple'
p2856
aS'copies'
p2857
aS'together'
p2858
aS'shall'
p2859
aS'constitute'
p2860
aS'one'
p2861
aS'and'
p2862
aS'the'
p2863
aS'same'
p2864
aS'instrument.'
p2865
asS'SENT_246'
p2866
(lp2867
S'ADAPTEC,'
p2868
aS'INC.'
p2869
aS'ROXIO,'
p2870
aS'INC.'
p2871
aS'("Adaptec")'
p2872
aS'("Roxio")'
p2873
aS'By:'
p2874
aS'By:'
p2875
aS'Name:'
p2876
aS'Name:'
p2877
aS'Title:'
p2878
aS'Title:'
p2879
aS'17'
p2880
asS'SENT_241'
p2881
(lp2882
S'Nothing'
p2883
aS'contained'
p2884
aS'herein'
p2885
aS'and'
p2886
aS'no'
p2887
aS'action'
p2888
aS'taken'
p2889
aS'pursuant'
p2890
aS'hereto'
p2891
aS'shall'
p2892
aS'constitute'
p2893
aS'the'
p2894
aS'parties'
p2895
aS'as'
p2896
aS'joint'
p2897
aS'ventures'
p2898
aS'or'
p2899
aS'the'
p2900
aS'agents'
p2901
aS'of'
p2902
aS'the'
p2903
aS'other'
p2904
aS'party'
p2905
aS'for'
p2906
aS'any'
p2907
aS'purpose'
p2908
aS'or'
p2909
aS'in'
p2910
aS'any'
p2911
aS'sense'
p2912
aS'whatsoever.'
p2913
asS'SENT_240'
p2914
(lp2915
S'The'
p2916
aS'parties'
p2917
aS'are'
p2918
aS'independent'
p2919
aS'contractors.'
p2920
asS'SENT_243'
p2921
(lp2922
S'This'
p2923
aS'Agreement'
p2924
aS'and'
p2925
aS'amendments'
p2926
aS'hereto'
p2927
aS'shall'
p2928
aS'be'
p2929
aS'in'
p2930
aS'writing'
p2931
aS'and'
p2932
aS'executed'
p2933
aS'in'
p2934
aS'multiple'
p2935
aS'copies'
p2936
aS'via'
p2937
aS'facsimile'
p2938
aS'or'
p2939
aS'otherwise'
p2940
aS'on'
p2941
aS'behalf'
p2942
aS'of'
p2943
aS'Adaptec'
p2944
aS'and'
p2945
aS'Roxio'
p2946
aS'by'
p2947
aS'their'
p2948
aS'respective'
p2949
aS'duly'
p2950
aS'authorized'
p2951
aS'officers'
p2952
aS'or'
p2953
aS'representatives.'
p2954
asS'SENT_242'
p2955
(lp2956
S'19.15'
p2957
aS'AMENDMENT'
p2958
aS'AND'
p2959
aS'EXECUTION.'
p2960
asS'SENT_124'
p2961
(lp2962
S'Adaptec'
p2963
aS'will'
p2964
aS'provide'
p2965
aS'Roxio'
p2966
aS'with'
p2967
aS'credit'
p2968
aS'terms'
p2969
aS'in'
p2970
aS'accordance'
p2971
aS'with'
p2972
aS'the'
p2973
aS'credit'
p2974
aS'policies'
p2975
aS'established'
p2976
aS'by'
p2977
aS'its'
p2978
aS'credit'
p2979
aS'department.'
p2980
asS'SENT_209'
p2981
(lp2982
S'(a)'
p2983
aS'REPRESENTATION.'
p2984
asS'SENT_228'
p2985
(lp2986
S'To'
p2987
aS'the'
p2988
aS'extent'
p2989
aS'this'
p2990
aS'Agreement'
p2991
aS'is'
p2992
aS'in'
p2993
aS'violation'
p2994
aS'of'
p2995
aS'applicable'
p2996
aS'law,'
p2997
aS'then'
p2998
aS'the'
p2999
aS'parties'
p3000
aS'agree'
p3001
aS'to'
p3002
aS'negotiate'
p3003
aS'in'
p3004
aS'good'
p3005
aS'faith'
p3006
aS'to'
p3007
aS'amend'
p3008
aS'the'
p3009
aS'Agreement,'
p3010
aS'to'
p3011
aS'the'
p3012
aS'extent'
p3013
aS'possible'
p3014
aS'consistent'
p3015
aS'with'
p3016
aS'its'
p3017
aS'purposes,'
p3018
aS'to'
p3019
aS'conform'
p3020
aS'to'
p3021
aS'law.'
p3022
asS'SENT_125'
p3023
(lp3024
S'ARTICLE'
p3025
ag2327
aS'QUALITY'
p3026
aS'AND'
p3027
aS'INSPECTION'
p3028
aS'8.1'
p3029
aS"ADAPTEC'S"
p3030
aS'PROCESS.'
p3031
asS'SENT_223'
p3032
(lp3033
S'Any'
p3034
aS'capitalized'
p3035
aS'term'
p3036
aS'used'
p3037
aS'in'
p3038
aS'any'
p3039
aS'Exhibit'
p3040
aS'or'
p3041
aS'Schedule'
p3042
aS'but'
p3043
aS'not'
p3044
aS'otherwise'
p3045
aS'defined'
p3046
aS'therein,'
p3047
aS'shall'
p3048
aS'have'
p3049
aS'the'
p3050
aS'meaning'
p3051
aS'assigned'
p3052
aS'to'
p3053
aS'such'
p3054
aS'term'
p3055
aS'in'
p3056
aS'this'
p3057
aS'Agreement.'
p3058
asS'SENT_222'
p3059
(lp3060
S'The'
p3061
aS'headings'
p3062
aS'contained'
p3063
aS'in'
p3064
aS'this'
p3065
aS'Agreement,'
p3066
aS'in'
p3067
aS'any'
p3068
aS'Exhibit'
p3069
aS'or'
p3070
aS'Schedule'
p3071
aS'hereto'
p3072
aS'and'
p3073
aS'in'
p3074
aS'the'
p3075
aS'table'
p3076
aS'of'
p3077
aS'contents'
p3078
aS'to'
p3079
aS'this'
p3080
aS'Agreement'
p3081
aS'are'
p3082
aS'for'
p3083
aS'reference'
p3084
aS'purposes'
p3085
aS'only'
p3086
aS'and'
p3087
aS'shall'
p3088
aS'not'
p3089
aS'affect'
p3090
aS'in'
p3091
aS'any'
p3092
aS'way'
p3093
aS'the'
p3094
aS'meaning'
p3095
aS'or'
p3096
aS'interpretation'
p3097
aS'of'
p3098
aS'this'
p3099
aS'Agreement.'
p3100
asS'SENT_221'
p3101
(lp3102
S'19.8'
p3103
aS'DESCRIPTIVE'
p3104
aS'HEADINGS.'
p3105
asS'SENT_220'
p3106
(lp3107
S'The'
p3108
aS'Superior'
p3109
aS'Court'
p3110
aS'of'
p3111
aS'Santa'
p3112
aS'Clara'
p3113
aS'County'
p3114
aS'and/or'
p3115
aS'the'
p3116
aS'United'
p3117
aS'15'
p3118
aS'States'
p3119
aS'District'
p3120
aS'Court'
p3121
aS'for'
p3122
aS'the'
p3123
aS'Northern'
p3124
aS'District'
p3125
aS'of'
p3126
aS'California,'
p3127
aS'San'
p3128
aS'Jose'
p3129
aS'Division,'
p3130
aS'shall'
p3131
aS'have'
p3132
aS'jurisdiction'
p3133
aS'and'
p3134
aS'venue'
p3135
aS'over'
p3136
aS'all'
p3137
aS'Disputes'
p3138
aS'between'
p3139
aS'the'
p3140
aS'parties'
p3141
aS'that'
p3142
aS'are'
p3143
aS'permitted'
p3144
aS'to'
p3145
aS'be'
p3146
aS'brought'
p3147
aS'in'
p3148
ag12
aS'court'
p3149
aS'of'
p3150
aS'law'
p3151
aS'pursuant'
p3152
aS'to'
p3153
aS'Section'
p3154
aS'18.7'
p3155
aS'above.'
p3156
asS'SENT_227'
p3157
(lp3158
S'Accordingly,'
p3159
aS'if'
p3160
aS'any'
p3161
aS'one'
p3162
aS'or'
p3163
aS'more'
p3164
aS'of'
p3165
aS'the'
p3166
aS'terms,'
p3167
aS'provisions,'
p3168
aS'promises,'
p3169
aS'covenants'
p3170
aS'or'
p3171
aS'conditions'
p3172
aS'of'
p3173
aS'this'
p3174
aS'Agreement'
p3175
aS'or'
p3176
aS'the'
p3177
aS'application'
p3178
aS'thereof'
p3179
aS'to'
p3180
aS'any'
p3181
aS'person'
p3182
aS'or'
p3183
aS'circumstance'
p3184
aS'shall'
p3185
aS'be'
p3186
aS'adjudged'
p3187
aS'to'
p3188
aS'any'
p3189
aS'extent'
p3190
aS'invalid,'
p3191
aS'unenforceable,'
p3192
aS'void'
p3193
aS'or'
p3194
aS'voidable'
p3195
aS'for'
p3196
aS'any'
p3197
aS'reason'
p3198
aS'whatsoever'
p3199
aS'by'
p3200
ag12
aS'court'
p3201
aS'of'
p3202
aS'competent'
p3203
aS'jurisdiction,'
p3204
aS'such'
p3205
aS'provision'
p3206
aS'shall'
p3207
aS'be'
p3208
aS'as'
p3209
aS'narrowly'
p3210
aS'construed'
p3211
aS'as'
p3212
aS'possible,'
p3213
aS'and'
p3214
aS'each'
p3215
aS'and'
p3216
aS'all'
p3217
aS'of'
p3218
aS'the'
p3219
aS'remaining'
p3220
aS'terms,'
p3221
aS'provisions,'
p3222
aS'promises,'
p3223
aS'covenants'
p3224
aS'and'
p3225
aS'conditions'
p3226
aS'of'
p3227
aS'this'
p3228
aS'Agreement'
p3229
aS'or'
p3230
aS'their'
p3231
aS'application'
p3232
aS'to'
p3233
aS'other'
p3234
aS'persons'
p3235
aS'or'
p3236
aS'circumstances'
p3237
aS'shall'
p3238
aS'not'
p3239
aS'be'
p3240
aS'affected'
p3241
aS'thereby'
p3242
aS'and'
p3243
aS'shall'
p3244
aS'be'
p3245
aS'valid'
p3246
aS'and'
p3247
aS'enforceable'
p3248
aS'to'
p3249
aS'the'
p3250
aS'fullest'
p3251
aS'extent'
p3252
aS'permitted'
p3253
aS'by'
p3254
aS'law.'
p3255
asS'SENT_203'
p3256
(lp3257
S'19.3'
p3258
aS'DAMAGE'
p3259
aS'LIMITATION.'
p3260
asS'SENT_225'
p3261
(lp3262
S'19.9'
p3263
aS'SEVERABILITY.'
p3264
asS'SENT_224'
p3265
(lp3266
S'When'
p3267
ag12
aS'reference'
p3268
aS'is'
p3269
aS'made'
p3270
aS'in'
p3271
aS'this'
p3272
aS'Agreement'
p3273
aS'to'
p3274
aS'an'
p3275
aS'Article,'
p3276
aS'Section,'
p3277
aS'Exhibit'
p3278
aS'or'
p3279
aS'Schedule,'
p3280
aS'such'
p3281
aS'reference'
p3282
aS'shall'
p3283
aS'be'
p3284
aS'to'
p3285
aS'an'
p3286
aS'Article'
p3287
aS'or'
p3288
aS'Section'
p3289
aS'of,'
p3290
aS'or'
p3291
aS'an'
p3292
aS'Exhibit'
p3293
aS'or'
p3294
aS'Schedule'
p3295
aS'to,'
p3296
aS'this'
p3297
aS'Agreement'
p3298
aS'unless'
p3299
aS'otherwise'
p3300
aS'indicated.'
p3301
asS'SENT_79'
p3302
(lp3303
S'Unless'
p3304
aS'otherwise'
p3305
aS'agreed'
p3306
aS'to'
p3307
aS'in'
p3308
aS'writing'
p3309
aS'by'
p3310
aS'Adaptec,'
p3311
aS'all'
p3312
aS'Service'
p3313
aS'Fees'
p3314
aS'are'
p3315
aS'exclusive'
p3316
aS'of'
p3317
aS'transportation'
p3318
aS'and'
p3319
aS'insurance'
p3320
aS'from'
p3321
aS"Adaptec's"
p3322
aS'Singapore'
p3323
aS'facilities'
p3324
aS'to'
p3325
aS'the'
p3326
aS'Delivery'
p3327
aS'Point,'
p3328
aS'and'
p3329
aS'all'
p3330
aS'taxes,'
p3331
aS'duties'
p3332
aS'and'
p3333
aS'assessments'
p3334
aS'(except'
p3335
aS'taxes'
p3336
aS'levied'
p3337
aS'against'
p3338
aS"Adaptec's"
p3339
aS'net'
p3340
aS'income),'
p3341
aS'including'
p3342
aS'state'
p3343
aS'and'
p3344
aS'local'
p3345
aS'use,'
p3346
aS'sales'
p3347
aS'property'
p3348
aS'and'
p3349
aS'similar'
p3350
aS'taxes'
p3351
aS'(collectively,'
p3352
aS'"Taxes").'
p3353
asS'SENT_78'
p3354
(lp3355
S'All'
p3356
aS'Service'
p3357
aS'Fees'
p3358
aS'shall'
p3359
aS'be'
p3360
aS'reviewed'
p3361
aS'at'
p3362
aS'the'
p3363
aS'Quarterly'
p3364
aS'Review'
p3365
aS'Meeting'
p3366
aS'and'
p3367
aS'shall'
p3368
aS'be'
p3369
aS'adjusted'
p3370
aS'such'
p3371
aS'that'
p3372
aS'they'
p3373
aS'are'
p3374
aS'approximately'
p3375
aS'equivalent'
p3376
aS'to'
p3377
aS'the'
p3378
aS'Standard'
p3379
aS'Cost'
p3380
aS'with'
p3381
aS'respect'
p3382
aS'to'
p3383
aS'the'
p3384
ag331
aS'Product,'
p3385
aS'plus'
p3386
aS'ten'
p3387
aS'percent'
p3388
aS'(10'
p3389
aS'%).'
p3390
asS'SENT_201'
p3391
(lp3392
S'Any'
p3393
aS'attempt'
p3394
aS'at'
p3395
aS'assignment'
p3396
aS'in'
p3397
aS'derogation'
p3398
aS'of'
p3399
aS'the'
p3400
aS'foregoing'
p3401
aS'shall'
p3402
aS'be'
p3403
aS'null'
p3404
aS'and'
p3405
aS'void.'
p3406
asS'SENT_73'
p3407
(lp3408
S'3.7'
p3409
aS'CONTRACTORS.'
p3410
asS'SENT_72'
p3411
(lp3412
S'Each'
p3413
aS'party'
p3414
aS'shall'
p3415
aS'use'
p3416
aS'reasonable'
p3417
aS'efforts'
p3418
aS'to'
p3419
aS'have'
p3420
aS'appropriate'
p3421
aS'personnel'
p3422
aS'attend'
p3423
aS'such'
p3424
aS'meetings'
p3425
aS'in'
p3426
aS'order'
p3427
aS'to'
p3428
aS'conduct'
p3429
ag12
aS'thorough'
p3430
aS'operations'
p3431
aS'review'
p3432
aS'in'
p3433
aS'accordance'
p3434
aS'with'
p3435
aS'the'
p3436
aS'agenda.'
p3437
asS'SENT_71'
p3438
(lp3439
S'In'
p3440
aS'addition,'
p3441
aS'either'
p3442
aS'party'
p3443
aS'may'
p3444
aS'request'
p3445
aS'additional'
p3446
aS'meetings'
p3447
aS'from'
p3448
aS'time'
p3449
aS'to'
p3450
aS'time'
p3451
aS'to'
p3452
aS'address'
p3453
aS'additional'
p3454
aS'issues'
p3455
aS'or'
p3456
aS'problems'
p3457
aS'that'
p3458
aS'have'
p3459
aS'arisen.'
p3460
asS'SENT_70'
p3461
(lp3462
S'Commencing'
p3463
aS'on'
p3464
aS'the'
p3465
aS'Separation'
p3466
aS'Date'
p3467
aS'and'
p3468
aS'during'
p3469
aS'the'
p3470
aS'Term,'
p3471
aS'Roxio'
p3472
aS'shall'
p3473
aS'schedule'
p3474
ag12
aS'Quarterly'
p3475
aS'Review'
p3476
aS'Meeting'
p3477
aS'to'
p3478
aS'occur'
p3479
aS'in'
p3480
aS'the'
p3481
aS'second'
p3482
aS'week'
p3483
aS'of'
p3484
aS'each'
p3485
aS'calendar'
p3486
aS'quarter'
p3487
aS'and'
p3488
aS'will'
p3489
aS'prepare'
p3490
aS'the'
p3491
aS'agenda'
p3492
aS'for'
p3493
aS'discussion.'
p3494
asS'SENT_77'
p3495
(lp3496
S'Any'
p3497
aS'Service'
p3498
aS'Fee'
p3499
aS'which'
p3500
aS'is'
p3501
aS'not'
p3502
aS'set'
p3503
aS'forth'
p3504
aS'on'
p3505
aS'EXHIBIT'
p3506
ag81
aS'initially'
p3507
aS'will'
p3508
aS'be'
p3509
aS'set'
p3510
aS'at'
p3511
aS'the'
p3512
aS'Standard'
p3513
aS'Cost'
p3514
aS'with'
p3515
aS'respect'
p3516
aS'to'
p3517
aS'the'
p3518
aS'Product'
p3519
aS'at'
p3520
aS'the'
p3521
aS'time'
p3522
aS'of'
p3523
aS'production'
p3524
aS'release,'
p3525
aS'plus'
p3526
aS'ten'
p3527
aS'percent'
p3528
aS'(10%).'
p3529
asS'SENT_76'
p3530
(lp3531
S'ARTICLE'
p3532
aS'4'
p3533
aS'SERVICE'
p3534
aS'FEES'
p3535
aS'Subject'
p3536
aS'to'
p3537
aS'the'
p3538
aS'terms'
p3539
aS'and'
p3540
aS'conditions'
p3541
aS'of'
p3542
aS'this'
p3543
aS'Agreement,'
p3544
aS'Adaptec'
p3545
aS'agrees'
p3546
aS'initially'
p3547
aS'to'
p3548
aS'perform'
p3549
aS'the'
p3550
aS'Services'
p3551
aS'for'
p3552
aS'the'
p3553
aS'respective'
p3554
aS'Service'
p3555
aS'Fees'
p3556
aS'set'
p3557
aS'forth'
p3558
aS'on'
p3559
aS'EXHIBIT'
p3560
aS'A.'
p3561
asS'SENT_75'
p3562
(lp3563
S'Roxio,'
p3564
aS'upon'
p3565
aS'request,'
p3566
aS'may'
p3567
aS'review'
p3568
aS'such'
p3569
aS'agreements'
p3570
aS'at'
p3571
aS'any'
p3572
aS'time'
p3573
aS'before'
p3574
aS'or'
p3575
aS'after'
p3576
aS'execution'
p3577
aS'by'
p3578
aS'such'
p3579
aS'Contractors'
p3580
aS'and'
p3581
aS'Subsidiaries'
p3582
aS'to'
p3583
aS'ensure'
p3584
aS'compliance'
p3585
aS'with'
p3586
aS'this'
p3587
aS'Agreement.'
p3588
asS'SENT_74'
p3589
(lp3590
S'Adaptec'
p3591
aS'may'
p3592
aS'retain'
p3593
aS'third'
p3594
aS'parties'
p3595
aS'("Contractors")'
p3596
aS'and'
p3597
aS'subsidiary'
p3598
aS'companies'
p3599
aS'("Subsidiaries")'
p3600
aS'to'
p3601
aS'furnish'
p3602
aS'services'
p3603
aS'to'
p3604
aS'it'
p3605
aS'in'
p3606
aS'connection'
p3607
aS'with'
p3608
aS'the'
p3609
aS'performance'
p3610
aS'of'
p3611
aS'its'
p3612
aS'obligations'
p3613
aS'hereunder'
p3614
aS'and'
p3615
aS'permit'
p3616
aS'such'
p3617
aS'Contractors'
p3618
aS'and'
p3619
aS'Subsidiaries'
p3620
aS'to'
p3621
aS'have'
p3622
aS'access'
p3623
aS'to'
p3624
aS"Roxio's"
p3625
aS'Confidential'
p3626
aS'Information,'
p3627
aS'but'
p3628
aS'only'
p3629
aS'to'
p3630
aS'the'
p3631
aS'extent'
p3632
aS'and'
p3633
aS'insofar'
p3634
aS'as'
p3635
aS'reasonably'
p3636
aS'required'
p3637
aS'in'
p3638
aS'connection'
p3639
aS'with'
p3640
aS'the'
p3641
aS'performance'
p3642
aS'of'
p3643
aS"Adaptec's"
p3644
aS'obligations'
p3645
aS'under'
p3646
aS'this'
p3647
aS'Agreement;'
p3648
aS'provided'
p3649
aS'that'
p3650
aS'all'
p3651
aS'such'
p3652
aS'Contractors'
p3653
aS'and'
p3654
aS'Subsidiaries'
p3655
aS'shall'
p3656
aS'be'
p3657
aS'required'
p3658
aS'by'
p3659
aS'Adaptec'
p3660
aS'to'
p3661
aS'execute'
p3662
ag12
aS'written'
p3663
aS'agreement'
p3664
aS'that'
p3665
aS'(a)'
p3666
aS'is'
p3667
aS'sufficient'
p3668
aS'to'
p3669
aS'secure'
p3670
aS'compliance'
p3671
aS'by'
p3672
aS'such'
p3673
aS'Contractors'
p3674
aS'and'
p3675
aS'Subsidiaries'
p3676
aS'with'
p3677
aS"Adaptec's"
p3678
aS'obligation'
p3679
aS'of'
p3680
aS'confidentiality'
p3681
aS'concerning'
p3682
aS'Confidential'
p3683
aS'Information'
p3684
aS'set'
p3685
aS'forth'
p3686
aS'in'
p3687
aS'Article'
p3688
aS'16;'
p3689
aS'(b)'
p3690
aS'acknowledges'
p3691
aS'the'
p3692
aS"Contractor's"
p3693
aS'or'
p3694
aS"Subsidiary's"
p3695
aS'obligation'
p3696
aS'to'
p3697
aS'assign'
p3698
aS'all'
p3699
aS'work'
p3700
aS'product'
p3701
aS'in'
p3702
aS'connection'
p3703
aS'with'
p3704
aS'performance'
p3705
aS'hereunder;'
p3706
aS'and'
p3707
aS'(c)'
p3708
aS'assigns'
p3709
aS'to'
p3710
aS'Roxio'
p3711
aS'all'
p3712
aS'Intellectual'
p3713
aS'Property'
p3714
aS'Rights'
p3715
aS'concerning'
p3716
aS'any'
p3717
aS'Roxio'
p3718
aS'Technology.'
p3719
asS'SENT_208'
p3720
(lp3721
S'19.5'
p3722
aS'EXPORT'
p3723
aS'CONTROL.'
p3724
asS'SENT_207'
p3725
(lp3726
S'This'
p3727
aS'allocation'
p3728
aS'is'
p3729
aS'reflected'
p3730
aS'in'
p3731
aS'the'
p3732
aS'pricing'
p3733
aS'of'
p3734
aS'the'
p3735
aS'Products'
p3736
aS'and'
p3737
aS'is'
p3738
aS'an'
p3739
aS'essential'
p3740
aS'element'
p3741
aS'of'
p3742
aS'the'
p3743
aS'basis'
p3744
aS'of'
p3745
aS'the'
p3746
aS'bargain'
p3747
aS'between'
p3748
aS'the'
p3749
aS'parties.'
p3750
asS'SENT_229'
p3751
(lp3752
S'19.10'
p3753
aS'FORCE'
p3754
aS'MAJEURE.'
p3755
asS'SENT_206'
p3756
(lp3757
S'The'
p3758
aS'parties'
p3759
aS'acknowledge'
p3760
aS'and'
p3761
aS'affirm'
p3762
aS'that'
p3763
aS'the'
p3764
aS'sections'
p3765
aS'on'
p3766
aS'limitation'
p3767
aS'of'
p3768
aS'liability,'
p3769
aS'warranties'
p3770
aS'and'
p3771
aS'disclaimer'
p3772
aS'of'
p3773
aS'warranties'
p3774
aS'and'
p3775
aS'damage'
p3776
aS'limitation'
p3777
aS'in'
p3778
aS'this'
p3779
aS'Agreement'
p3780
aS'allocate'
p3781
aS'the'
p3782
aS'risks'
p3783
aS'between'
p3784
aS'the'
p3785
aS'parties.'
p3786
asS'SENT_86'
p3787
(lp3788
S'Roxio'
p3789
aS'acknowledges'
p3790
aS'that'
p3791
aS'Adaptec'
p3792
aS'will'
p3793
aS'use'
p3794
aS'forecasts'
p3795
aS'for'
p3796
aS'material'
p3797
aS'and'
p3798
aS'manufacturing'
p3799
aS'planning'
p3800
aS'purposes'
p3801
aS'in'
p3802
aS'connection'
p3803
aS'with'
p3804
aS'the'
p3805
aS'Services'
p3806
aS'and,'
p3807
aS'further,'
p3808
aS'that'
p3809
aS'Adaptec'
p3810
aS'will'
p3811
aS'purchase'
p3812
aS'Components'
p3813
aS'Inventory'
p3814
aS'required'
p3815
aS'for'
p3816
aS'the'
p3817
aS'Services'
p3818
aS'in'
p3819
aS'accordance'
p3820
aS'with'
p3821
aS'such'
p3822
aS'forecast.'
p3823
asS'SENT_87'
p3824
(lp3825
S'5.2'
p3826
aS'SERVICE'
p3827
aS'ORDERS.'
p3828
asS'SENT_84'
p3829
(lp3830
S'Roxio'
p3831
aS'will'
p3832
aS'provide'
p3833
aS'Adaptec,'
p3834
aS'on'
p3835
aS'the'
p3836
aS'Separation'
p3837
aS'Date,'
p3838
aS'and'
p3839
aS'thereafter,'
p3840
aS'in'
p3841
aS'accordance'
p3842
aS'with'
p3843
aS'the'
p3844
aS'Guidelines,'
p3845
ag12
aS'monthly'
p3846
aS'forecast'
p3847
aS'of'
p3848
aS"Roxio's"
p3849
aS'requirements'
p3850
aS'for'
p3851
aS'Services'
p3852
aS'covering'
p3853
aS'the'
p3854
aS'remainder'
p3855
aS'of'
p3856
aS'the'
p3857
aS'Term.'
p3858
asS'SENT_85'
p3859
(lp3860
S'Such'
p3861
aS'forecasts'
p3862
aS'shall'
p3863
aS'represent'
p3864
aS'and'
p3865
aS'reflect'
p3866
aS"Roxio's"
p3867
aS'good'
p3868
aS'faith'
p3869
aS'expectations'
p3870
aS'of'
p3871
aS'its'
p3872
aS'requirements'
p3873
aS'based'
p3874
aS'upon'
p3875
aS'customer'
p3876
aS'demand.'
p3877
asS'SENT_82'
p3878
(lp3879
S'Where'
p3880
aS'applicable,'
p3881
aS'Taxes'
p3882
aS'shall'
p3883
aS'appear'
p3884
aS'as'
p3885
aS'separate'
p3886
aS'items'
p3887
aS'on'
p3888
aS"Adaptec's"
p3889
aS'invoice.'
p3890
asS'SENT_83'
p3891
(lp3892
S'ARTICLE'
p3893
ag331
aS'FORECASTS,'
p3894
aS'ORDERING'
p3895
aS'AND'
p3896
aS'ADJUSTMENTS'
p3897
aS'5.1'
p3898
aS'FORECASTS.'
p3899
asS'SENT_80'
p3900
(lp3901
S'Roxio'
p3902
aS'agrees'
p3903
aS'to'
p3904
aS'pay'
p3905
aS'all'
p3906
aS'Taxes,'
p3907
aS'unless'
p3908
aS'Roxio'
p3909
aS'has'
p3910
aS'provided'
p3911
aS'Adaptec'
p3912
aS'with'
p3913
aS'(i)'
p3914
aS'an'
p3915
aS'exemption'
p3916
aS'resale'
p3917
aS'certificate'
p3918
aS'in'
p3919
aS'the'
p3920
aS'appropriate'
p3921
aS'form'
p3922
aS'for'
p3923
aS'the'
p3924
aS'jurisdiction'
p3925
aS'of'
p3926
aS"Roxio's"
p3927
aS'place'
p3928
aS'of'
p3929
aS'business'
p3930
aS'and'
p3931
aS'any'
p3932
aS'jurisdiction'
p3933
aS'to'
p3934
aS'which'
p3935
aS'Product'
p3936
aS'is'
p3937
aS'to'
p3938
aS'be'
p3939
aS'directly'
p3940
aS'shipped'
p3941
aS'hereunder,'
p3942
aS'or'
p3943
aS'(ii)'
p3944
aS'written'
p3945
aS'evidence'
p3946
aS'that'
p3947
aS'such'
p3948
aS'sale'
p3949
aS'is'
p3950
aS'otherwise'
p3951
aS'exempt'
p3952
aS'from'
p3953
aS'such'
p3954
aS'taxes.'
p3955
asS'SENT_81'
p3956
(lp3957
S'In'
p3958
aS'the'
p3959
aS'event'
p3960
aS'Adaptec'
p3961
aS'is'
p3962
aS'required'
p3963
aS'to'
p3964
aS'pay'
p3965
aS'any'
p3966
aS'Tax'
p3967
aS'or'
p3968
aS'transportation'
p3969
aS'or'
p3970
aS'insurance'
p3971
aS'charges,'
p3972
aS'Roxio'
p3973
aS'shall'
p3974
aS'reimburse'
p3975
aS'Adaptec'
p3976
aS'the'
p3977
aS'amount'
p3978
aS'of'
p3979
aS'the'
p3980
aS'Tax'
p3981
aS'or'
p3982
aS'charge'
p3983
aS'plus'
p3984
aS'five'
p3985
aS'percent'
p3986
aS'(5%).'
p3987
asS'SENT_88'
p3988
(lp3989
S'Roxio'
p3990
aS'shall'
p3991
aS'place'
p3992
aS'Service'
p3993
aS'Orders'
p3994
aS'with'
p3995
aS'Adaptec'
p3996
aS'in'
p3997
aS'accordance'
p3998
aS'with'
p3999
aS'the'
p4000
aS'Guidelines'
p4001
aS'to'
p4002
aS'initiate'
p4003
aS'the'
p4004
aS'performance'
p4005
aS'of'
p4006
aS'Services'
p4007
aS'by'
p4008
aS'Adaptec.'
p4009
asS'SENT_89'
p4010
(lp4011
S'Each'
p4012
aS'Service'
p4013
aS'Order'
p4014
aS'(a)'
p4015
aS'will'
p4016
aS'be'
p4017
aS'issued'
p4018
aS'by'
p4019
aS'Roxio'
p4020
aS'in'
p4021
aS'accordance'
p4022
aS'with'
p4023
aS'the'
p4024
aS'applicable'
p4025
aS'Lead'
p4026
aS'Time(s),'
p4027
aS'which'
p4028
aS'initially'
p4029
aS'shall'
p4030
aS'be'
p4031
aS'eleven'
p4032
aS'(11)'
p4033
aS'days'
p4034
aS'and'
p4035
aS'(b)'
p4036
aS'will'
p4037
aS'be'
p4038
aS'at'
p4039
aS'least'
p4040
aS'the'
p4041
aS'Minimum'
p4042
aS'Order'
p4043
aS'Size'
p4044
aS'for'
p4045
aS'that'
p4046
aS'Product'
p4047
aS'as'
p4048
aS'specified'
p4049
aS'in'
p4050
aS'EXHIBIT'
p4051
aS'A.'
p4052
aS'Adaptec'
p4053
aS'shall'
p4054
aS'use'
p4055
aS'reasonable'
p4056
aS'efforts'
p4057
aS'to'
p4058
aS'perform'
p4059
aS'the'
p4060
aS'Services'
p4061
aS'in'
p4062
aS'accordance'
p4063
aS'with'
p4064
aS'the'
p4065
aS'Service'
p4066
aS'Order.'
p4067
asS'SENT_218'
p4068
(lp4069
S'19.7'
p4070
aS'GOVERNING'
p4071
aS'LAW.'
p4072
asS'SENT_219'
p4073
(lp4074
S'This'
p4075
aS'Agreement'
p4076
aS'shall'
p4077
aS'be'
p4078
aS'construed'
p4079
aS'in'
p4080
aS'accordance'
p4081
aS'with'
p4082
aS'and'
p4083
aS'all'
p4084
aS'Disputes'
p4085
aS'hereunder'
p4086
aS'shall'
p4087
aS'be'
p4088
aS'governed'
p4089
aS'by'
p4090
aS'the'
p4091
aS'laws'
p4092
aS'of'
p4093
aS'the'
p4094
aS'State'
p4095
aS'of'
p4096
aS'California,'
p4097
aS'excluding'
p4098
aS'its'
p4099
aS'conflict'
p4100
aS'of'
p4101
aS'law'
p4102
aS'rules'
p4103
aS'and'
p4104
aS'the'
p4105
aS'United'
p4106
aS'Nations'
p4107
aS'Convention'
p4108
aS'on'
p4109
aS'Contracts'
p4110
aS'for'
p4111
aS'the'
p4112
aS'International'
p4113
aS'Sale'
p4114
aS'of'
p4115
aS'Goods.'
p4116
asS'SENT_216'
p4117
(lp4118
S'19.6'
p4119
aS'WAIVER.'
p4120
asS'SENT_128'
p4121
(lp4122
S'Roxio,'
p4123
aS'or'
p4124
aS'its'
p4125
aS'representative'
p4126
aS'(which'
p4127
aS'must'
p4128
aS'be'
p4129
aS'reasonably'
p4130
aS'acceptable'
p4131
aS'to'
p4132
aS'Adaptec),'
p4133
aS'will'
p4134
aS'be'
p4135
aS'entitled'
p4136
aS'to'
p4137
aS'inspect'
p4138
aS'the'
p4139
aS'Products'
p4140
aS'and'
p4141
aS'their'
p4142
aS'manufacturing'
p4143
aS'process'
p4144
aS'at'
p4145
aS'the'
p4146
aS'manufacturing'
p4147
aS'facilities'
p4148
aS'of'
p4149
aS'Adaptec'
p4150
aS'or'
p4151
aS'its'
p4152
aS'Subcontractor,'
p4153
aS'or'
p4154
aS'at'
p4155
aS"Adaptec's"
p4156
aS'warehouse,'
p4157
aS'prior'
p4158
aS'to'
p4159
aS'Delivery'
p4160
aS'and'
p4161
aS'during'
p4162
aS'the'
p4163
aS'course'
p4164
aS'of'
p4165
aS"Adaptec's"
p4166
aS'performance'
p4167
aS'of'
p4168
aS'Services.'
p4169
asS'SENT_214'
p4170
(lp4171
S'Adaptec'
p4172
aS'shall'
p4173
aS'not'
p4174
aS'be'
p4175
aS'required'
p4176
aS'to'
p4177
aS'ship'
p4178
aS'any'
p4179
aS'Product'
p4180
aS'if'
p4181
aS'it'
p4182
aS'believes'
p4183
aS'that'
p4184
aS'such'
p4185
aS'shipment'
p4186
aS'may'
p4187
aS'violate'
p4188
aS'any'
p4189
aS'applicable'
p4190
aS'EAR.'
p4191
asS'SENT_215'
p4192
(lp4193
S'Roxio'
p4194
aS'will'
p4195
aS'promptly'
p4196
aS'inform'
p4197
aS'Adaptec'
p4198
aS'of'
p4199
aS'any'
p4200
aS'change'
p4201
aS'in'
p4202
aS'any'
p4203
aS'Product,'
p4204
aS'which'
p4205
aS'may'
p4206
aS'affect'
p4207
aS'its'
p4208
aS'export'
p4209
aS'status,'
p4210
aS'including'
p4211
aS'any'
p4212
aS'change'
p4213
aS','
p4214
aS'which'
p4215
aS'may'
p4216
aS'affect'
p4217
aS'its'
p4218
aS'EAR'
p4219
aS'Export'
p4220
aS'Commerce'
p4221
aS'Control'
p4222
aS'Number'
p4223
aS'or'
p4224
aS'License'
p4225
aS'designator,'
p4226
aS'after'
p4227
aS'the'
p4228
aS'Separation'
p4229
aS'Date.'
p4230
asS'SENT_212'
p4231
(lp4232
S'(b)'
p4233
aS'RESPONSIBILITY.'
p4234
asS'SENT_213'
p4235
(lp4236
S'Except'
p4237
aS'as'
p4238
aS'otherwise'
p4239
aS'agreed'
p4240
aS'in'
p4241
aS'writing'
p4242
aS'between'
p4243
aS'the'
p4244
aS'parties,'
p4245
aS'all'
p4246
aS'export'
p4247
aS'permits,'
p4248
aS'import'
p4249
aS'certificates,'
p4250
aS'insurance,'
p4251
aS'duty,'
p4252
aS'customs'
p4253
aS'clearance'
p4254
aS'charges'
p4255
aS'and/or'
p4256
aS'licenses'
p4257
aS'and'
p4258
aS'related'
p4259
aS'costs'
p4260
aS'from'
p4261
aS'the'
p4262
aS'Delivery'
p4263
aS'Point'
p4264
aS'will'
p4265
aS'be'
p4266
aS"Roxio's"
p4267
aS'responsibility.'
p4268
asS'SENT_210'
p4269
(lp4270
S'Roxio'
p4271
aS'agrees'
p4272
aS'to'
p4273
aS'comply'
p4274
aS'strictly'
p4275
aS'and'
p4276
aS'fully'
p4277
aS'with'
p4278
aS'all'
p4279
aS'export'
p4280
aS'controls'
p4281
aS'imposed'
p4282
aS'on'
p4283
aS'the'
p4284
aS'Products'
p4285
aS'and'
p4286
aS'the'
p4287
aS'Roxio'
p4288
aS'Technology'
p4289
aS'by'
p4290
aS'any'
p4291
aS'country'
p4292
aS'or'
p4293
aS'organization'
p4294
aS'in'
p4295
aS'whose'
p4296
aS'jurisdiction'
p4297
aS'Roxio'
p4298
aS'operates'
p4299
aS'or'
p4300
aS'does'
p4301
aS'business.'
p4302
asS'SENT_129'
p4303
(lp4304
S'Such'
p4305
aS'inspection'
p4306
aS'shall'
p4307
aS'be'
p4308
aS'solely'
p4309
aS'for'
p4310
aS'the'
p4311
aS'purpose'
p4312
aS'of'
p4313
aS'reviewing'
p4314
aS'the'
p4315
aS'quality'
p4316
aS'of'
p4317
aS'such'
p4318
aS'Products'
p4319
aS'and'
p4320
aS'processes.'
p4321
asS'SENT_68'
p4322
(lp4323
S'Adaptec'
p4324
aS'will'
p4325
aS'package'
p4326
aS'each'
p4327
aS'Product'
p4328
aS'substantially'
p4329
aS'in'
p4330
aS'accordance'
p4331
aS'with'
p4332
aS'the'
p4333
aS'applicable'
p4334
aS'Packaging'
p4335
aS'Specification,'
p4336
aS'as'
p4337
aS'it'
p4338
aS'may'
p4339
aS'be'
p4340
aS'amended'
p4341
aS'from'
p4342
aS'time'
p4343
aS'to'
p4344
aS'time'
p4345
aS'upon'
p4346
aS'agreement'
p4347
aS'of'
p4348
aS'the'
p4349
aS'parties'
p4350
aS'and'
p4351
aS'subject'
p4352
aS'to'
p4353
aS'approval'
p4354
aS'of'
p4355
aS'the'
p4356
aS'respective'
p4357
aS'engineering'
p4358
aS'organizations'
p4359
aS'of'
p4360
aS'the'
p4361
aS'parties.'
p4362
asS'SENT_69'
p4363
(lp4364
S'3.6'
p4365
aS'MEETINGS.'
p4366
asS'SENT_60'
p4367
(lp4368
S'3.3'
p4369
aS'LEAD'
p4370
aS'TIME;'
p4371
aS'RESCHEDULING;'
p4372
aS'ALLOCATION.'
p4373
asS'SENT_61'
p4374
(lp4375
S'Adaptec'
p4376
aS'shall'
p4377
aS'use'
p4378
aS'reasonable'
p4379
aS'commercial'
p4380
aS'efforts'
p4381
aS'to'
p4382
aS'accept'
p4383
aS'and'
p4384
aS'perform'
p4385
aS'any'
p4386
aS'Service'
p4387
aS'Order'
p4388
aS'placed'
p4389
aS'in'
p4390
aS'accordance'
p4391
aS'with'
p4392
aS'the'
p4393
aS'terms'
p4394
aS'and'
p4395
aS'conditions'
p4396
aS'of'
p4397
aS'this'
p4398
aS'Agreement,'
p4399
aS'including'
p4400
aS'the'
p4401
aS'applicable'
p4402
aS'Lead'
p4403
aS'Times'
p4404
aS'(which'
p4405
aS'may'
p4406
aS'be'
p4407
aS'revised'
p4408
aS'by'
p4409
aS'Adaptec'
p4410
aS'from'
p4411
aS'time'
p4412
aS'to'
p4413
aS'time'
p4414
aS'upon'
p4415
aS'notice'
p4416
aS'to'
p4417
aS'Roxio).'
p4418
asS'SENT_62'
p4419
(lp4420
S'Adaptec'
p4421
aS'may,'
p4422
aS'at'
p4423
aS'its'
p4424
aS'sole'
p4425
aS'discretion,'
p4426
aS'allocate'
p4427
aS'its'
p4428
aS'capacity'
p4429
aS'among'
p4430
aS"Adaptec's"
p4431
aS'customers,'
p4432
aS'but'
p4433
aS'will'
p4434
aS'provide'
p4435
aS'Roxio'
p4436
aS'with'
p4437
aS'priority'
p4438
aS'equivalent'
p4439
aS'to'
p4440
aS'that'
p4441
aS'given'
p4442
aS'to'
p4443
aS'customers'
p4444
aS'purchasing'
p4445
aS'similar'
p4446
aS'services,'
p4447
aS'in'
p4448
aS'similar'
p4449
aS'quantities,'
p4450
aS'using'
p4451
aS'similar'
p4452
aS'processes'
p4453
aS'or'
p4454
aS'materials.'
p4455
asS'SENT_63'
p4456
(lp4457
g3533
aS'3.4'
p4458
aS'PROVISION'
p4459
aS'OF'
p4460
aS'ROXIO'
p4461
aS'DOCUMENTATION'
p4462
aS'AND'
p4463
aS'ROXIO'
p4464
aS'TECHNOLOGY.'
p4465
asS'SENT_64'
p4466
(lp4467
S'As'
p4468
aS'soon'
p4469
aS'as'
p4470
aS'required'
p4471
aS'after'
p4472
aS'the'
p4473
aS'Separation'
p4474
aS'Date,'
p4475
aS'Roxio'
p4476
aS'will'
p4477
aS'deliver'
p4478
aS'to'
p4479
aS'Adaptec'
p4480
aS'the'
p4481
aS'Roxio'
p4482
aS'Documentation'
p4483
aS'for'
p4484
aS'each'
p4485
aS'Product.'
p4486
asS'SENT_65'
p4487
(lp4488
S'Subject'
p4489
aS'to'
p4490
aS'the'
p4491
aS'terms'
p4492
aS'and'
p4493
aS'conditions'
p4494
aS'of'
p4495
aS'this'
p4496
aS'Agreement,'
p4497
aS'Roxio'
p4498
aS'grants'
p4499
aS'to'
p4500
aS'Adaptec'
p4501
aS'and'
p4502
aS'any'
p4503
aS'subcontractor'
p4504
aS'retained'
p4505
aS'by'
p4506
aS'Adaptec'
p4507
aS'in'
p4508
aS'connection'
p4509
aS'with'
p4510
aS'the'
p4511
aS'performance'
p4512
aS'of'
p4513
aS"Adaptec's"
p4514
aS'obligations'
p4515
aS'under'
p4516
aS'this'
p4517
aS'Agreement,'
p4518
aS'during'
p4519
aS'the'
p4520
aS'Term'
p4521
aS'of'
p4522
aS'this'
p4523
aS'Agreement,'
p4524
ag12
aS'nonexclusive,'
p4525
aS'nontransferable'
p4526
aS'license'
p4527
aS'to'
p4528
aS'use'
p4529
aS'the'
p4530
aS'Roxio'
p4531
aS'Technology'
p4532
aS'solely'
p4533
aS'to'
p4534
aS'the'
p4535
aS'extent'
p4536
aS'required'
p4537
aS'to'
p4538
aS'perform'
p4539
aS'the'
p4540
aS'Services.'
p4541
asS'SENT_66'
p4542
(lp4543
S'Roxio'
p4544
aS'shall'
p4545
aS'retain'
p4546
aS'all'
p4547
aS'right,'
p4548
aS'title'
p4549
aS'and'
p4550
aS'interest'
p4551
aS'in'
p4552
aS'and'
p4553
aS'to'
p4554
aS'the'
p4555
aS'Roxio'
p4556
aS'Documentation'
p4557
aS'and'
p4558
aS'Roxio'
p4559
aS'Technology.'
p4560
asS'SENT_67'
p4561
(lp4562
S'3.5'
p4563
aS'PACKAGING.'
p4564
asS'SENT_5'
p4565
(lp4566
S'1.2'
p4567
aS'COMPONENTS'
p4568
aS'INVENTORY.'
p4569
asS'SENT_4'
p4570
(lp4571
S'"Ancillary'
p4572
aS'Agreements"'
p4573
aS'shall'
p4574
aS'have'
p4575
aS'the'
p4576
aS'meaning'
p4577
aS'set'
p4578
aS'forth'
p4579
aS'in'
p4580
aS'the'
p4581
aS'Master'
p4582
aS'Separation'
p4583
aS'and'
p4584
aS'Distribution'
p4585
aS'Agreement.'
p4586
asS'SENT_7'
p4587
(lp4588
S'1.3'
p4589
aS'CONFIDENTIAL'
p4590
aS'INFORMATION.'
p4591
asS'SENT_6'
p4592
(lp4593
S'"Components'
p4594
aS'Inventory"'
p4595
aS'means'
p4596
aS'the'
p4597
aS'inventory'
p4598
aS'of'
p4599
aS'raw'
p4600
aS'material'
p4601
aS'and'
p4602
aS'other'
p4603
aS'Product'
p4604
aS'components'
p4605
aS'consistent'
p4606
aS'with'
p4607
aS"Roxio's"
p4608
aS'forecast,'
p4609
aS'as'
p4610
aS'provided'
p4611
aS'in'
p4612
aS'Section'
p4613
aS'5.1.'
p4614
asS'SENT_1'
p4615
(lp4616
S'EFFECTIVE'
p4617
aS'AS'
p4618
aS'OF'
p4619
aS'NOVEMBER'
p4620
aS'__,'
p4621
aS'2000'
p4622
aS'MANUFACTURING'
p4623
aS'SERVICES'
p4624
aS'AGREEMENT'
p4625
aS'TABLE'
p4626
aS'OF'
p4627
aS'CONTENTS'
p4628
aS'&lt;TABLE&gt;'
p4629
aS'&lt;CAPTION&gt;'
p4630
aS'PAGE'
p4631
aS'&lt;S&gt;'
p4632
aS'&lt;C&gt;'
p4633
aS'ARTICLE'
p4634
aS'1'
p4635
aS'DEFINITIONS...................................................................................2'
p4636
aS'1.1'
p4637
aS'ANCILLARY'
p4638
aS'AGREEMENTS...........................................................................2'
p4639
aS'1.2'
p4640
aS'COMPONENTS'
p4641
aS'INVENTORY...........................................................................2'
p4642
aS'1.3'
p4643
aS'CONFIDENTIAL'
p4644
aS'INFORMATION.......................................................................2'
p4645
aS'1.4'
p4646
aS'CUSTOMER.......................................................................................2'
p4647
aS'1.5'
p4648
aS'DELIVER,'
p4649
aS'DELIVERED'
p4650
aS'OR'
p4651
aS'DELIVERY.................................................................2'
p4652
aS'1.6'
p4653
aS'DELIVERY'
p4654
aS'POINT.................................................................................2'
p4655
aS'1.7'
p4656
aS'FINISHED'
p4657
aS'GOODS'
p4658
aS'INVENTORY.......................................................................2'
p4659
aS'1.8'
p4660
aS'GUIDELINES.....................................................................................2'
p4661
aS'1.9'
p4662
aS'INVENTORY......................................................................................2'
p4663
aS'1.10'
p4664
aS'LEAD'
p4665
aS'TIME......................................................................................2'
p4666
aS'1.11'
p4667
aS'MASTER'
p4668
aS'SEPARATION'
p4669
aS'AND'
p4670
aS'DISTRIBUTION'
p4671
aS'AGREEMENT...................................................3'
p4672
aS'1.12'
p4673
aS'MINIMUM'
p4674
aS'ORDER'
p4675
aS'SIZE.............................................................................3'
p4676
aS'1.13'
p4677
aS'PACKAGING'
p4678
aS'SPECIFICATIONS.......................................................................3'
p4679
aS'1.14'
p4680
aS'PRODUCT........................................................................................3'
p4681
aS'1.15'
p4682
aS'QUARTERLY'
p4683
aS'REVIEW'
p4684
aS'MEETING.......................................................................3'
p4685
aS'1.16'
p4686
aS'ROXIO'
p4687
aS'DOCUMENTATION............................................................................3'
p4688
aS'1.17'
p4689
aS'ROXIO'
p4690
aS'TECHNOLOGY...............................................................................3'
p4691
aS'1.18'
p4692
aS'ROXIO'
p4693
aS'WAREHOUSE................................................................................3'
p4694
aS'1.19'
p4695
aS'SERVICE'
p4696
aS'FEE....................................................................................3'
p4697
aS'1.20'
p4698
aS'SERVICE'
p4699
aS'ORDERS.................................................................................3'
p4700
aS'1.21'
p4701
aS'SERVICES.......................................................................................3'
p4702
aS'1.22'
p4703
aS'SPECIFICATIONS.................................................................................4'
p4704
aS'1.23'
p4705
aS'STANDARD'
p4706
aS'COST..................................................................................4'
p4707
aS'1.24'
p4708
aS'WORK'
p4709
aS'IN'
p4710
aS'PROCESS................................................................................4'
p4711
aS'ARTICLE'
p4712
ag992
aS'TERM'
p4713
aS'OF'
p4714
aS'AGREEMENT.............................................................................4'
p4715
aS'ARTICLE'
p4716
aS'3'
p4717
aS'PERFORMANCE'
p4718
aS'OF'
p4719
aS'SERVICES........................................................................4'
p4720
aS'3.1'
p4721
aS'RETENTION......................................................................................4'
p4722
aS'3.2'
p4723
aS'PERFORMANCE'
p4724
aS'OF'
p4725
aS'SERVICES........................................................................4'
p4726
aS'3.3'
p4727
aS'LEAD'
p4728
aS'TIME;'
p4729
aS'RESCHEDULING;'
p4730
aS'ALLOCATION............................................................4'
p4731
aS'3.4'
p4732
aS'PROVISION'
p4733
aS'OF'
p4734
aS'ROXIO'
p4735
aS'DOCUMENTATION'
p4736
aS'AND'
p4737
aS'ROXIO'
p4738
aS'TECHNOLOGY...............................................................................5'
p4739
aS'3.5'
p4740
aS'PACKAGING......................................................................................5'
p4741
aS'3.6'
p4742
aS'MEETINGS.......................................................................................5'
p4743
aS'3.7'
p4744
aS'CONTRACTORS....................................................................................5'
p4745
aS'ARTICLE'
p4746
ag3533
aS'SERVICE'
p4747
aS'FEES...................................................................................5'
p4748
aS'ARTICLE'
p4749
ag331
aS'FORECASTS,'
p4750
aS'ORDERING'
p4751
aS'AND'
p4752
aS'ADJUSTMENTS...........................................................6'
p4753
aS'5.1'
p4754
aS'FORECASTS......................................................................................6'
p4755
aS'5.2'
p4756
aS'SERVICE'
p4757
aS'ORDERS.................................................................................6'
p4758
aS'5.3'
p4759
aS'SERVICE'
p4760
aS'ORDER'
p4761
aS'ADJUSTMENTS......................................................................6'
p4762
aS'i'
p4763
aS'5.4'
p4764
aS'LIABILITY'
p4765
aS'FOR'
p4766
aS'INVENTORY........................................................................7'
p4767
aS'5.5'
p4768
aS'AGREEMENT'
p4769
aS'CONTROLS.............................................................................7'
p4770
aS'ARTICLE'
p4771
ag1764
aS'DELIVERY,'
p4772
aS'CARRIER'
p4773
aS'&'
p4774
aS'RISK'
p4775
aS'OF'
p4776
aS'LOSS..............................................................7'
p4777
aS'6.1'
p4778
aS'DELIVERY'
p4779
aS'OF'
p4780
aS'PRODUCT;'
p4781
aS'RISK'
p4782
aS'OF'
p4783
aS'LOSS..............................................................7'
p4784
aS'6.2'
p4785
aS'SHIPMENT.......................................................................................7'
p4786
aS'ARTICLE'
p4787
aS'7'
p4788
aS'PAYMENTS......................................................................................8'
p4789
aS'ARTICLE'
p4790
ag2327
aS'QUALITY'
p4791
aS'AND'
p4792
aS'INSPECTION........................................................................8'
p4793
aS'8.1'
p4794
aS"ADAPTEC'S"
p4795
aS'PROCESS..............................................................................8'
p4796
aS'8.2'
p4797
aS'ROXIO'
p4798
aS'INSPECTION...............................................................................8'
p4799
aS'ARTICLE'
p4800
ag88
aS'ACCEPTANCE'
p4801
aS'AND'
p4802
aS'REJECTION'
p4803
aS'OF'
p4804
aS'PRODUCTS..........................................................9'
p4805
aS'ARTICLE'
p4806
aS'10'
p4807
aS'WARRANTY.....................................................................................9'
p4808
aS'10.1'
p4809
aS'MATERIALS'
p4810
aS'AND'
p4811
aS'WORKMANSHIP......................................................................9'
p4812
aS'10.2'
p4813
aS'WARRANTY'
p4814
aS'REPLACEMENT...........................................................................9'
p4815
aS'10.3'
p4816
aS'RMA'
p4817
aS'PROCEDURES.................................................................................9'
p4818
aS'10.4'
p4819
aS'NO'
p4820
aS'LIABILITY...................................................................................9'
p4821
aS'10.5'
p4822
aS'DISCLAIMER'
p4823
aS'OF'
p4824
aS'WARRANTIES.......................................................................9'
p4825
aS'ARTICLE'
p4826
aS'11'
p4827
aS'PRODUCT'
p4828
aS'CHANGES.............................................................................10'
p4829
aS'11.1'
p4830
aS'ON'
p4831
aS"ADAPTEC'S"
p4832
aS'NOTICE...........................................................................10'
p4833
aS'11.2'
p4834
aS'AT'
p4835
aS"ROXIO'S"
p4836
aS'REQUEST............................................................................10'
p4837
aS'11.3'
p4838
aS'CHANGE'
p4839
aS'MANAGEMENT.............................................................................10'
p4840
aS'ARTICLE'
p4841
aS'12'
p4842
aS'OWNERSHIP'
p4843
aS'OF'
p4844
aS'ROXIO'
p4845
aS'TECHNOLOGY...............................................................10'
p4846
aS'ARTICLE'
p4847
aS'13'
p4848
aS'INTELLECTUAL'
p4849
aS'PROPERTY'
p4850
aS'INDEMNITY.............................................................10'
p4851
aS'ARTICLE'
p4852
aS'14'
p4853
aS'GENERAL'
p4854
aS'INDEMNITY...........................................................................11'
p4855
aS'ARTICLE'
p4856
aS'15'
p4857
aS'TERMINATION.................................................................................11'
p4858
aS'15.1'
p4859
aS'TERMINATION'
p4860
aS'WITHOUT'
p4861
aS'CAUSE.....................................................................11'
p4862
aS'15.2'
p4863
aS'EFFECT'
p4864
aS'OF'
p4865
aS'TERMINATION'
p4866
aS'WITHOUT'
p4867
aS'CAUSE...........................................................11'
p4868
aS'15.3'
p4869
aS'TERMINATION'
p4870
aS'FOR'
p4871
aS'DEFAULT.......................................................................11'
p4872
aS'15.4'
p4873
aS'EFFECT'
p4874
aS'OF'
p4875
aS'TERMINATION'
p4876
aS'IN'
p4877
aS'GENERAL..............................................................12'
p4878
aS'15.5'
p4879
aS'TRANSITION'
p4880
aS'ASSISTANCE.........................................................................12'
p4881
aS'ARTICLE'
p4882
aS'16'
p4883
aS'CONFIDENTIALITY.............................................................................13'
p4884
aS'ARTICLE'
p4885
aS'17'
p4886
aS'LIMITATION'
p4887
aS'OF'
p4888
aS'LIABILITY.....................................................................13'
p4889
aS'ARTICLE'
p4890
aS'18'
p4891
aS'DISPUTE'
p4892
aS'RESOLUTION..........................................................................13'
p4893
aS'ARTICLE'
p4894
aS'19'
p4895
aS'GENERAL.....................................................................................14'
p4896
aS'19.1'
p4897
aS'NOTICES.......................................................................................14'
p4898
aS'19.2'
p4899
aS'ASSIGNMENT....................................................................................15'
p4900
aS'19.3'
p4901
aS'DAMAGE'
p4902
aS'LIMITATION.............................................................................15'
p4903
aS'19.4'
p4904
aS'ALLOCATION'
p4905
aS'OF'
p4906
aS'RISK............................................................................15'
p4907
aS'19.5'
p4908
aS'EXPORT'
p4909
aS'CONTROL................................................................................15'
p4910
aS'19.6'
p4911
aS'WAIVER........................................................................................15'
p4912
aS'19.7'
p4913
aS'GOVERNING'
p4914
aS'LAW.................................................................................15'
p4915
aS'19.8'
p4916
aS'DESCRIPTIVE'
p4917
aS'HEADINGS..........................................................................16'
p4918
aS'19.9'
p4919
aS'SEVERABILITY..................................................................................16'
p4920
aS'19.10'
p4921
aS'FORCE'
p4922
aS'MAJEURE..............................................................................16'
p4923
aS'19.11'
p4924
aS'ENTIRE'
p4925
aS'AGREEMENT...........................................................................16'
p4926
aS'19.12'
p4927
aS'CONFLICTING'
p4928
aS'AGREEMENTS.....................................................................16'
p4929
aS'19.13'
p4930
aS'CONTROLLING'
p4931
aS'DOCUMENT.......................................................................17'
p4932
aS'ii'
p4933
aS'19.14'
p4934
aS'RELATIONSHIP...............................................................................17'
p4935
aS'19.15'
p4936
aS'AMENDMENT'
p4937
aS'AND'
p4938
aS'EXECUTION....................................................................17'
p4939
aS'&lt;/TABLE&gt;'
p4940
aS'iii'
p4941
aS'MANUFACTURING'
p4942
aS'SERVICES'
p4943
aS'AGREEMENT'
p4944
aS'This'
p4945
aS'MANUFACTURING'
p4946
aS'SERVICES'
p4947
aS'AGREEMENT'
p4948
aS'("Agreement")'
p4949
aS'is'
p4950
aS'made'
p4951
aS'by'
p4952
aS'and'
p4953
aS'between'
p4954
aS'Adaptec'
p4955
aS'Manufacturing'
p4956
aS'Singapore'
p4957
aS'on'
p4958
aS'its'
p4959
aS'own'
p4960
aS'behalf'
p4961
aS'and'
p4962
aS'on'
p4963
aS'behalf'
p4964
aS'of'
p4965
aS'each'
p4966
aS'of'
p4967
aS'its'
p4968
aS'parent,'
p4969
aS'Adaptec,'
p4970
aS'Inc.'
p4971
aS'and'
p4972
aS'its'
p4973
aS'majority'
p4974
aS'owned'
p4975
aS'subsidiaries,'
p4976
aS'exclusive'
p4977
aS'of'
p4978
aS'Roxio,'
p4979
aS'Inc.'
p4980
aS'("Adaptec"),'
p4981
aS'and'
p4982
aS'Roxio,'
p4983
aS'Inc.,'
p4984
ag12
aS'Delaware'
p4985
aS'corporation,'
p4986
aS'on'
p4987
aS'its'
p4988
aS'own'
p4989
aS'behalf'
p4990
aS'and'
p4991
aS'on'
p4992
aS'behalf'
p4993
aS'of'
p4994
aS'each'
p4995
aS'of'
p4996
aS'its'
p4997
aS'majority'
p4998
aS'owned'
p4999
aS'subsidiaries'
p5000
aS'("Roxio"),'
p5001
aS'and'
p5002
aS'is'
p5003
aS'effective'
p5004
aS'as'
p5005
aS'of'
p5006
aS'12:01'
p5007
aS'a.m.'
p5008
aS'Pacific'
p5009
aS'Time,'
p5010
aS'November'
p5011
aS'__,'
p5012
aS'2000'
p5013
aS'(the'
p5014
aS'"Separation'
p5015
aS'Date").'
p5016
asS'SENT_0'
p5017
(lp5018
S'MANUFACTURING'
p5019
aS'SERVICES'
p5020
aS'AGREEMENT'
p5021
aS'BETWEEN'
p5022
aS'ADAPTEC,'
p5023
aS'INC.'
p5024
aS'AND'
p5025
aS'ROXIO,'
p5026
aS'INC.'
p5027
asS'SENT_3'
p5028
(lp5029
S'NOW,'
p5030
aS'THEREFORE,'
p5031
aS'in'
p5032
aS'consideration'
p5033
aS'of'
p5034
aS'the'
p5035
aS'foregoing'
p5036
aS'and'
p5037
aS'the'
p5038
aS'covenants'
p5039
aS'and'
p5040
aS'agreements'
p5041
aS'set'
p5042
aS'forth'
p5043
aS'below,'
p5044
aS'the'
p5045
aS'parties'
p5046
aS'hereto'
p5047
aS'agree'
p5048
aS'as'
p5049
aS'follows:'
p5050
aS'ARTICLE'
p5051
ag4635
aS'DEFINITIONS'
p5052
aS'1.1'
p5053
aS'ANCILLARY'
p5054
aS'AGREEMENTS.'
p5055
asS'SENT_2'
p5056
(lp5057
S'RECITALS'
p5058
aS'WHEREAS,'
p5059
aS'the'
p5060
aS'Boards'
p5061
aS'of'
p5062
aS'Directors'
p5063
aS'of'
p5064
aS'each'
p5065
aS'of'
p5066
aS'Adaptec'
p5067
aS'and'
p5068
aS'Roxio'
p5069
aS'have'
p5070
aS'determined'
p5071
aS'that'
p5072
aS'it'
p5073
aS'is'
p5074
aS'appropriate'
p5075
aS'and'
p5076
aS'desirable'
p5077
aS'for'
p5078
aS'Adaptec'
p5079
aS'to'
p5080
aS'contribute'
p5081
aS'and'
p5082
aS'transfer'
p5083
aS'to'
p5084
aS'Roxio,'
p5085
aS'and'
p5086
aS'for'
p5087
aS'Roxio'
p5088
aS'to'
p5089
aS'receive'
p5090
aS'and'
p5091
aS'assume,'
p5092
aS'directly'
p5093
aS'or'
p5094
aS'indirectly,'
p5095
aS'substantially'
p5096
aS'all'
p5097
aS'of'
p5098
aS'the'
p5099
aS'assets'
p5100
aS'and'
p5101
aS'liabilities'
p5102
aS'currently'
p5103
aS'associated'
p5104
aS'with'
p5105
aS'the'
p5106
aS'Roxio'
p5107
aS'Business'
p5108
aS'and'
p5109
aS'the'
p5110
aS'stock,'
p5111
aS'investments'
p5112
aS'or'
p5113
aS'similar'
p5114
aS'interests'
p5115
aS'currently'
p5116
aS'held'
p5117
aS'by'
p5118
aS'Adaptec'
p5119
aS'in'
p5120
aS'subsidiaries'
p5121
aS'and'
p5122
aS'other'
p5123
aS'entities'
p5124
aS'that'
p5125
aS'conduct'
p5126
aS'such'
p5127
aS'business'
p5128
aS'(the'
p5129
aS'"Separation");'
p5130
aS'WHEREAS,'
p5131
aS'Adaptec'
p5132
aS'has'
p5133
aS'caused'
p5134
aS'Roxio'
p5135
aS'to'
p5136
aS'be'
p5137
aS'incorporated'
p5138
aS'in'
p5139
aS'order'
p5140
aS'to'
p5141
aS'effect'
p5142
aS'the'
p5143
aS'Separation'
p5144
aS'and'
p5145
aS'Adaptec'
p5146
aS'currently'
p5147
aS'owns'
p5148
aS'all'
p5149
aS'of'
p5150
aS'the'
p5151
aS'issued'
p5152
aS'and'
p5153
aS'outstanding'
p5154
aS'capital'
p5155
aS'stock'
p5156
aS'of'
p5157
aS'Roxio;'
p5158
aS'WHEREAS,'
p5159
aS'Adaptec'
p5160
aS'and'
p5161
aS'Roxio'
p5162
aS'currently'
p5163
aS'contemplate'
p5164
aS'that,'
p5165
aS'following'
p5166
aS'the'
p5167
aS'contribution'
p5168
aS'and'
p5169
aS'assumption'
p5170
aS'of'
p5171
aS'assets'
p5172
aS'and'
p5173
aS'liabilities,'
p5174
aS'Roxio'
p5175
aS'will'
p5176
aS'make'
p5177
aS'an'
p5178
aS'initial'
p5179
aS'public'
p5180
aS'offering'
p5181
aS'("IPO")'
p5182
aS'of'
p5183
aS'an'
p5184
aS'amount'
p5185
aS'of'
p5186
aS'its'
p5187
aS'common'
p5188
aS'stock'
p5189
aS'pursuant'
p5190
aS'to'
p5191
ag12
aS'registration'
p5192
aS'statement'
p5193
aS'on'
p5194
aS'Form'
p5195
aS'S1'
p5196
aS'pursuant'
p5197
aS'to'
p5198
aS'the'
p5199
aS'Securities'
p5200
aS'Act'
p5201
aS'of'
p5202
aS'1933,'
p5203
aS'as'
p5204
aS'amended'
p5205
aS'(the'
p5206
aS'"IPO'
p5207
aS'Registration'
p5208
aS'Statement"),'
p5209
aS'that'
p5210
aS'will'
p5211
aS'reduce'
p5212
aS"Adaptec's"
p5213
aS'ownership'
p5214
aS'of'
p5215
aS'the'
p5216
aS'issued'
p5217
aS'and'
p5218
aS'outstanding'
p5219
aS'capital'
p5220
aS'stock'
p5221
aS'of'
p5222
aS'Roxio'
p5223
aS'to'
p5224
aS'not'
p5225
aS'less'
p5226
aS'than'
p5227
aS'80.1%;'
p5228
aS'WHEREAS,'
p5229
aS'Adaptec'
p5230
aS'currently'
p5231
aS'contemplates'
p5232
aS'that,'
p5233
aS'several'
p5234
aS'months'
p5235
aS'following'
p5236
aS'the'
p5237
aS'IPO,'
p5238
aS'Adaptec'
p5239
aS'will'
p5240
aS'distribute'
p5241
aS'to'
p5242
aS'the'
p5243
aS'holders'
p5244
aS'of'
p5245
aS'its'
p5246
aS'common'
p5247
aS'stock,'
p5248
aS'$'
p5249
aS'0.01'
p5250
aS'par'
p5251
aS'value,'
p5252
aS'by'
p5253
aS'means'
p5254
aS'of'
p5255
ag12
aS'pro'
p5256
aS'rata'
p5257
aS'distribution,'
p5258
aS'all'
p5259
aS'of'
p5260
aS'the'
p5261
aS'shares'
p5262
aS'of'
p5263
aS'Roxio'
p5264
aS'common'
p5265
aS'stock'
p5266
aS'owned'
p5267
aS'by'
p5268
aS'Adaptec'
p5269
aS'(the'
p5270
aS'"Distribution");'
p5271
aS'WHEREAS,'
p5272
aS'Adaptec'
p5273
aS'and'
p5274
aS'Roxio'
p5275
aS'intend'
p5276
aS'that'
p5277
aS'the'
p5278
aS'Separation'
p5279
aS'and'
p5280
aS'the'
p5281
aS'Distribution'
p5282
aS'will'
p5283
aS'qualify'
p5284
aS'as'
p5285
ag12
aS'taxfree'
p5286
aS'reorganization'
p5287
aS'under'
p5288
aS'Sections'
p5289
aS'368(a)(1)(D)'
p5290
aS'and'
p5291
aS'355'
p5292
aS'of'
p5293
aS'the'
p5294
aS'Internal'
p5295
aS'Revenue'
p5296
aS'Code'
p5297
aS'of'
p5298
aS'1986,'
p5299
aS'as'
p5300
aS'amended'
p5301
aS'(the'
p5302
aS'"Code"),'
p5303
aS'and'
p5304
aS'that'
p5305
aS'this'
p5306
aS'Agreement'
p5307
aS'is'
p5308
aS'intended'
p5309
aS'to'
p5310
aS'be,'
p5311
aS'and'
p5312
aS'is'
p5313
aS'hereby'
p5314
aS'adopted'
p5315
aS'as,'
p5316
ag12
aS'plan'
p5317
aS'of'
p5318
aS'reorganization'
p5319
aS'under'
p5320
aS'Section'
p5321
aS'368'
p5322
aS'of'
p5323
aS'the'
p5324
aS'Code;'
p5325
aS'and'
p5326
aS'WHEREAS,'
p5327
aS'the'
p5328
aS'parties'
p5329
aS'desire'
p5330
aS'that'
p5331
aS'Adaptec'
p5332
aS'perform'
p5333
aS'certain'
p5334
aS'services'
p5335
aS'for'
p5336
aS'Roxio'
p5337
aS'with'
p5338
aS'respect'
p5339
aS'to'
p5340
aS'the'
p5341
aS'products'
p5342
aS'manufactured'
p5343
aS'by'
p5344
aS'the'
p5345
aS'Roxio'
p5346
aS'Business'
p5347
aS'prior'
p5348
aS'to'
p5349
aS'the'
p5350
aS'Separation'
p5351
aS'Date'
p5352
aS'and'
p5353
aS'such'
p5354
aS'additional'
p5355
aS'products'
p5356
aS'as'
p5357
aS'the'
p5358
aS'parties'
p5359
aS'may'
p5360
aS'from'
p5361
aS'time'
p5362
aS'to'
p5363
aS'time'
p5364
aS'agree.'
p5365
asS'SENT_188'
p5366
(lp5367
S'If'
p5368
aS'at'
p5369
aS'any'
p5370
aS'time'
p5371
aS'either'
p5372
aS'party'
p5373
aS'feels'
p5374
aS'that'
p5375
aS'such'
p5376
aS'negotiations'
p5377
aS'are'
p5378
aS'not'
p5379
aS'leading'
p5380
aS'to'
p5381
ag12
aS'resolution'
p5382
aS'of'
p5383
aS'the'
p5384
aS'Dispute,'
p5385
aS'such'
p5386
aS'party'
p5387
aS'may'
p5388
aS'send'
p5389
ag12
aS'notice'
p5390
aS'to'
p5391
aS'the'
p5392
aS'other'
p5393
aS'party'
p5394
aS'describing'
p5395
aS'the'
p5396
aS'Dispute'
p5397
aS'and'
p5398
aS'requesting'
p5399
ag12
aS'meeting'
p5400
aS'of'
p5401
aS'the'
p5402
aS'senior'
p5403
aS'executives'
p5404
aS'from'
p5405
aS'each'
p5406
aS'party.'
p5407
asS'SENT_189'
p5408
(lp5409
S'Within'
p5410
aS'ten'
p5411
aS'(10)'
p5412
aS'business'
p5413
aS'days'
p5414
aS'after'
p5415
aS'such'
p5416
aS'notice'
p5417
aS'of'
p5418
ag12
aS'Dispute'
p5419
aS'is'
p5420
aS'given,'
p5421
aS'each'
p5422
aS'party'
p5423
aS'shall'
p5424
aS'select'
p5425
aS'appropriate'
p5426
aS'senior'
p5427
aS'executives'
p5428
aS'(e.g.'
p5429
asS'SENT_9'
p5430
(lp5431
S'1.4'
p5432
aS'CUSTOMER.'
p5433
asS'SENT_8'
p5434
(lp5435
S'"Confidential'
p5436
aS'Information"'
p5437
aS'shall'
p5438
aS'have'
p5439
aS'the'
p5440
aS'meaning'
p5441
aS'set'
p5442
aS'forth'
p5443
aS'in'
p5444
aS'the'
p5445
aS'Master'
p5446
aS'Confidential'
p5447
aS'Disclosure'
p5448
aS'Agreement'
p5449
aS'between'
p5450
aS'Adaptec'
p5451
aS'and'
p5452
aS'Roxio.'
p5453
asS'SENT_170'
p5454
(lp5455
S'15.3'
p5456
aS'TERMINATION'
p5457
aS'FOR'
p5458
aS'DEFAULT.'
p5459
asS'SENT_108'
p5460
(lp5461
S'All'
p5462
aS'Products'
p5463
aS'manufactured'
p5464
aS'hereunder'
p5465
aS'shall'
p5466
aS'be'
p5467
aS'Delivered'
p5468
aS'(a)'
p5469
aS'FOB'
p5470
aS"Adaptec's"
p5471
aS'warehouse'
p5472
aS'in'
p5473
aS'the'
p5474
aS'San'
p5475
aS'Francisco'
p5476
aS'Bay'
p5477
aS'Area,'
p5478
aS'with'
p5479
aS'respect'
p5480
aS'to'
p5481
aS'orders'
p5482
aS'destined'
p5483
aS'for'
p5484
aS'shipment'
p5485
aS'to'
p5486
ag12
aS'location'
p5487
aS'in'
p5488
aS'the'
p5489
aS'Americas,'
p5490
aS'including'
p5491
aS'the'
p5492
aS'United'
p5493
aS'States,'
p5494
aS'Canada,'
p5495
aS'Mexico'
p5496
aS'and'
p5497
aS'South'
p5498
aS'America;'
p5499
aS'(b)'
p5500
aS'EX'
p5501
aS'WORKS'
p5502
aS'Singapore,'
p5503
aS'with'
p5504
aS'respect'
p5505
aS'to'
p5506
aS'orders'
p5507
aS'destined'
p5508
aS'for'
p5509
aS'shipment'
p5510
aS'to'
p5511
ag12
aS'location'
p5512
aS'outside'
p5513
aS'the'
p5514
aS'United'
p5515
aS'States;'
p5516
aS'and'
p5517
aS'(c)'
p5518
aS'FOB'
p5519
aS'the'
p5520
aS'Roxio'
p5521
aS'Warehouse,'
p5522
aS'with'
p5523
aS'respect'
p5524
aS'to'
p5525
aS'orders'
p5526
aS'to'
p5527
aS'be'
p5528
aS'held'
p5529
aS'at'
p5530
aS'the'
p5531
aS'Roxio'
p5532
aS'Warehouse'
p5533
aS'for'
p5534
aS'pull'
p5535
aS'by'
p5536
ag12
aS'Customer.'
p5537
asS'SENT_109'
p5538
(lp5539
S'Risk'
p5540
aS'of'
p5541
aS'loss'
p5542
aS'shall'
p5543
aS'transfer'
p5544
aS'(a)'
p5545
aS'upon'
p5546
aS'delivery'
p5547
aS'to'
p5548
aS'the'
p5549
aS'carrier'
p5550
aS'at'
p5551
aS"Adaptec's"
p5552
aS'warehouse'
p5553
aS'in'
p5554
aS'the'
p5555
aS'San'
p5556
aS'Francisco'
p5557
aS'Bay'
p5558
aS'Area,'
p5559
aS'with'
p5560
aS'respect'
p5561
aS'to'
p5562
aS'orders'
p5563
aS'destined'
p5564
aS'for'
p5565
aS'shipment'
p5566
aS'to'
p5567
ag12
aS'location'
p5568
aS'in'
p5569
aS'the'
p5570
aS'Americas,'
p5571
aS'including'
p5572
aS'the'
p5573
aS'United'
p5574
aS'States,'
p5575
aS'Canada,'
p5576
aS'Mexico'
p5577
aS'and'
p5578
aS'South'
p5579
aS'America;'
p5580
aS'(b)'
p5581
aS'upon'
p5582
aS'the'
p5583
aS"carrier's"
p5584
aS'taking'
p5585
aS'possession'
p5586
aS'in'
p5587
aS'Singapore,'
p5588
aS'with'
p5589
aS'respect'
p5590
aS'to'
p5591
aS'orders'
p5592
aS'destined'
p5593
aS'for'
p5594
aS'shipment'
p5595
aS'to'
p5596
ag12
aS'location'
p5597
aS'outside'
p5598
aS'the'
p5599
aS'United'
p5600
aS'States;'
p5601
aS'and'
p5602
aS'(c)'
p5603
aS'upon'
p5604
aS'receipt'
p5605
aS'at'
p5606
aS'the'
p5607
aS'Roxio'
p5608
aS'Warehouse,'
p5609
aS'with'
p5610
aS'respect'
p5611
aS'to'
p5612
aS'orders'
p5613
aS'to'
p5614
aS'be'
p5615
aS'held'
p5616
aS'at'
p5617
aS'the'
p5618
aS'Roxio'
p5619
aS'Warehouse'
p5620
aS'for'
p5621
aS'pull'
p5622
aS'by'
p5623
ag12
aS'Customer.'
p5624
asS'SENT_102'
p5625
(lp5626
S'The'
p5627
aS'scrapping'
p5628
aS'of'
p5629
aS'such'
p5630
aS'Inventory'
p5631
aS'pursuant'
p5632
aS'to'
p5633
aS'this'
p5634
aS'Section'
p5635
aS'5.4,'
p5636
aS'shall'
p5637
aS'not'
p5638
aS'affect'
p5639
aS"Roxio's"
p5640
aS'obligation'
p5641
aS'to'
p5642
aS'pay'
p5643
aS'for'
p5644
aS'such'
p5645
aS'Inventory.'
p5646
asS'SENT_103'
p5647
(lp5648
S'5.5'
p5649
aS'AGREEMENT'
p5650
aS'CONTROLS.'
p5651
asS'SENT_100'
p5652
(lp5653
S'In'
p5654
aS'the'
p5655
aS'event'
p5656
aS'payment'
p5657
aS'is'
p5658
aS'not'
p5659
aS'made'
p5660
aS'or'
p5661
aS'shipping'
p5662
aS'instructions'
p5663
aS'are'
p5664
aS'not'
p5665
aS'received'
p5666
aS'within'
p5667
aS'thirty'
p5668
aS'(30)'
p5669
aS'days'
p5670
aS'of'
p5671
aS"Adaptec's"
p5672
aS'invoice,'
p5673
aS'Adaptec'
p5674
aS'may'
p5675
aS'scrap'
p5676
aS'the'
p5677
aS'affected'
p5678
aS'Inventory'
p5679
aS'without'
p5680
aS'further'
p5681
aS'liability'
p5682
aS'to'
p5683
aS'Roxio.'
p5684
asS'SENT_101'
p5685
(lp5686
S'In'
p5687
aS'addition,'
p5688
aS'the'
p5689
aS'parties'
p5690
aS'shall'
p5691
aS'review'
p5692
aS'Inventory'
p5693
aS'at'
p5694
aS'the'
p5695
aS'Quarterly'
p5696
aS'Review'
p5697
aS'Meeting'
p5698
aS'and'
p5699
aS'shall'
p5700
aS'identify'
p5701
aS'and'
p5702
aS'agree'
p5703
aS'upon'
p5704
aS'any'
p5705
aS'Inventory,'
p5706
aS'which'
p5707
aS'is'
p5708
aS'obsolete,'
p5709
aS'which'
p5710
aS'may'
p5711
aS'be'
p5712
aS'scrapped'
p5713
aS'by'
p5714
aS'Adaptec'
p5715
aS'promptly'
p5716
aS'thereafter.'
p5717
asS'SENT_106'
p5718
(lp5719
S'Any'
p5720
aS'remedies'
p5721
aS'at'
p5722
aS'law'
p5723
aS'or'
p5724
aS'equity'
p5725
aS'not'
p5726
aS'specifically'
p5727
aS'disclaimed'
p5728
aS'or'
p5729
aS'modified'
p5730
aS'by'
p5731
aS'this'
p5732
aS'Agreement'
p5733
aS'remain'
p5734
aS'available'
p5735
aS'to'
p5736
aS'both'
p5737
aS'parties.'
p5738
asS'SENT_107'
p5739
(lp5740
S'ARTICLE'
p5741
ag1764
aS'DELIVERY,'
p5742
aS'CARRIER'
p5743
ag4774
aS'RISK'
p5744
aS'OF'
p5745
aS'LOSS'
p5746
aS'6.1'
p5747
aS'DELIVERY'
p5748
aS'OF'
p5749
aS'PRODUCT;'
p5750
aS'RISK'
p5751
aS'OF'
p5752
aS'LOSS.'
p5753
asS'SENT_104'
p5754
(lp5755
S'Except'
p5756
aS'for'
p5757
aS'the'
p5758
aS'identification'
p5759
aS'of'
p5760
aS'Products,'
p5761
aS'quantities'
p5762
aS'and'
p5763
aS'other'
p5764
aS'matters'
p5765
aS'necessary'
p5766
aS'to'
p5767
aS'be'
p5768
aS'specified'
p5769
aS'by'
p5770
ag12
aS'Service'
p5771
aS'Order,'
p5772
aS'the'
p5773
aS'terms'
p5774
aS'governing'
p5775
aS'the'
p5776
aS'performance'
p5777
aS'of'
p5778
aS'Services'
p5779
aS'will'
p5780
aS'be'
p5781
aS'governed'
p5782
aS'by'
p5783
aS'the'
p5784
aS'terms'
p5785
aS'and'
p5786
aS'conditions'
p5787
aS'of'
p5788
aS'this'
p5789
aS'Agreement.'
p5790
asS'SENT_105'
p5791
(lp5792
S'In'
p5793
aS'the'
p5794
aS'case'
p5795
aS'of'
p5796
aS'conflict'
p5797
aS'between'
p5798
aS'this'
p5799
aS'Agreement'
p5800
aS'and'
p5801
aS'any'
p5802
aS'Service'
p5803
aS'Order,'
p5804
aS'invoice,'
p5805
aS'acknowledgement'
p5806
aS'or'
p5807
aS'similar'
p5808
aS'document,'
p5809
aS'the'
p5810
aS'terms'
p5811
aS'of'
p5812
aS'this'
p5813
aS'Agreement'
p5814
aS'will'
p5815
aS'prevail.'
p5816
asS'SENT_55'
p5817
(lp5818
S'3.2'
p5819
aS'PERFORMANCE'
p5820
aS'OF'
p5821
aS'SERVICES.'
p5822
asS'SENT_54'
p5823
(lp5824
S'Roxio'
p5825
aS'hereby'
p5826
aS'retains'
p5827
aS'Adaptec'
p5828
aS'to'
p5829
aS'perform'
p5830
aS'the'
p5831
aS'Services'
p5832
aS'in'
p5833
aS'accordance'
p5834
aS'with'
p5835
aS'the'
p5836
aS'terms'
p5837
aS'and'
p5838
aS'conditions'
p5839
aS'of'
p5840
aS'this'
p5841
aS'Agreement'
p5842
aS'and'
p5843
aS'Adaptec'
p5844
aS'hereby'
p5845
aS'consents'
p5846
aS'to'
p5847
aS'such'
p5848
aS'retention.'
p5849
asS'SENT_57'
p5850
(lp5851
S'Additional'
p5852
aS'Products'
p5853
aS'may'
p5854
aS'be'
p5855
aS'added'
p5856
aS'to'
p5857
aS'this'
p5858
aS'Agreement'
p5859
aS'upon'
p5860
aS'the'
p5861
aS"parties'"
p5862
aS'mutual'
p5863
aS'written'
p5864
aS'agreement'
p5865
aS'with'
p5866
aS'respect'
p5867
aS'to'
p5868
aS'the'
p5869
aS'Product,'
p5870
aS'and'
p5871
aS'its'
p5872
aS'Service'
p5873
aS'Fee'
p5874
aS'and'
p5875
aS'other'
p5876
aS'relevant'
p5877
aS'Productspecific'
p5878
aS'terms'
p5879
aS'and'
p5880
aS'conditions.'
p5881
asS'SENT_56'
p5882
(lp5883
S'During'
p5884
aS'the'
p5885
aS'Term,'
p5886
aS'Adaptec'
p5887
aS'shall'
p5888
aS'use'
p5889
aS'reasonable'
p5890
aS'commercial'
p5891
aS'efforts'
p5892
aS'to'
p5893
aS'perform'
p5894
aS'the'
p5895
aS'Services'
p5896
aS'in'
p5897
aS'accordance'
p5898
aS'with'
p5899
aS'the'
p5900
aS'terms'
p5901
aS'of'
p5902
aS'this'
p5903
aS'Agreement.'
p5904
asS'SENT_51'
p5905
(lp5906
S'"Work'
p5907
aS'in'
p5908
aS'Process"'
p5909
aS'means'
p5910
aS"Adaptec's"
p5911
aS'inventory'
p5912
aS'of'
p5913
aS'partially'
p5914
aS'completed'
p5915
aS'Products'
p5916
aS'consistent'
p5917
aS'with'
p5918
aS"Roxio's"
p5919
aS'outstanding'
p5920
aS'Service'
p5921
aS'Orders.'
p5922
asS'SENT_50'
p5923
(lp5924
S'1.24'
p5925
aS'WORK'
p5926
aS'IN'
p5927
aS'PROCESS.'
p5928
asS'SENT_53'
p5929
(lp5930
S'ARTICLE'
p5931
ag4717
aS'PERFORMANCE'
p5932
aS'OF'
p5933
aS'SERVICES'
p5934
aS'3.1'
p5935
aS'RETENTION.'
p5936
asS'SENT_52'
p5937
(lp5938
S'ARTICLE'
p5939
ag992
aS'TERM'
p5940
aS'OF'
p5941
aS'AGREEMENT'
p5942
aS'The'
p5943
aS'term'
p5944
aS'of'
p5945
aS'this'
p5946
aS'Agreement'
p5947
aS'("Term")'
p5948
aS'shall'
p5949
aS'commence'
p5950
aS'on'
p5951
aS'the'
p5952
aS'Separation'
p5953
aS'Date'
p5954
aS'and'
p5955
aS'shall'
p5956
aS'continue'
p5957
aS'for'
p5958
ag12
aS'period'
p5959
aS'of'
p5960
aS'twelve'
p5961
aS'(12)'
p5962
aS'months,'
p5963
aS'subject'
p5964
aS'to'
p5965
aS'earlier'
p5966
aS'termination'
p5967
aS'as'
p5968
aS'provided'
p5969
aS'in'
p5970
aS'Article'
p5971
aS'15.'
p5972
asS'SENT_160'
p5973
(lp5974
S'Roxio'
p5975
aS'shall'
p5976
aS'pay'
p5977
aS'all'
p5978
aS'costs'
p5979
aS'of'
p5980
aS'defense'
p5981
aS'and'
p5982
aS'settlement,'
p5983
aS'together'
p5984
aS'with'
p5985
aS'any'
p5986
aS'judgment'
p5987
aS'which'
p5988
aS'may'
p5989
aS'be'
p5990
aS'finally'
p5991
aS'awarded;'
p5992
aS'provided:'
p5993
aS'(a)'
p5994
aS'Adaptec'
p5995
aS'gives'
p5996
aS'Roxio'
p5997
aS'reasonably'
p5998
aS'prompt'
p5999
aS'notice'
p6000
aS'in'
p6001
aS'writing'
p6002
aS'of'
p6003
aS'any'
p6004
aS'such'
p6005
aS'suit'
p6006
aS'and'
p6007
aS'permits'
p6008
aS'Roxio,'
p6009
aS'through'
p6010
aS'counsel'
p6011
aS'10'
p6012
aS'of'
p6013
aS'its'
p6014
aS'choice,'
p6015
aS'to'
p6016
aS'defend'
p6017
aS'and/or'
p6018
aS'settle'
p6019
aS'such'
p6020
aS'Claim;'
p6021
aS'and'
p6022
aS'(b)'
p6023
aS'Adaptec'
p6024
aS'provides'
p6025
aS'Roxio'
p6026
aS'information,'
p6027
aS'assistance'
p6028
aS'and'
p6029
aS'authority,'
p6030
aS'at'
p6031
aS"Roxio's"
p6032
aS'expense,'
p6033
aS'to'
p6034
aS'enable'
p6035
aS'Roxio'
p6036
aS'to'
p6037
aS'defend'
p6038
aS'such'
p6039
aS'Claim.'
p6040
asS'SENT_161'
p6041
(lp6042
S'Roxio'
p6043
aS'shall'
p6044
aS'not'
p6045
aS'be'
p6046
aS'responsible'
p6047
aS'for'
p6048
aS'any'
p6049
aS'settlement'
p6050
aS'made'
p6051
aS'by'
p6052
aS'Adaptec'
p6053
aS'without'
p6054
aS"Roxio's"
p6055
aS'written'
p6056
aS'permission.'
p6057
asS'SENT_162'
p6058
(lp6059
S'ARTICLE'
p6060
aS'14'
p6061
aS'GENERAL'
p6062
aS'INDEMNITY'
p6063
aS'Each'
p6064
aS'party'
p6065
aS'hereto'
p6066
aS'(the'
p6067
aS'"Indemnifying'
p6068
aS'Party")'
p6069
aS'shall,'
p6070
aS'at'
p6071
aS'its'
p6072
aS'own'
p6073
aS'expense,'
p6074
aS'defend'
p6075
aS'the'
p6076
aS'other'
p6077
aS'party,'
p6078
aS'and'
p6079
aS'its'
p6080
aS'subsidiaries,'
p6081
aS'affiliates,'
p6082
aS'directors,'
p6083
aS'officers,'
p6084
aS'employees,'
p6085
aS'agents'
p6086
aS'and'
p6087
aS'independent'
p6088
aS'contractors'
p6089
aS'(collectively,'
p6090
aS'the'
p6091
aS'"Indemnified'
p6092
aS'Party"),'
p6093
aS'from'
p6094
aS'and'
p6095
aS'against'
p6096
aS'any'
p6097
aS'and'
p6098
aS'all'
p6099
aS'loss,'
p6100
aS'cost,'
p6101
aS'liability'
p6102
aS'or'
p6103
aS'expense'
p6104
aS'(including'
p6105
aS'costs'
p6106
aS'and'
p6107
aS'reasonable'
p6108
aS'fees'
p6109
aS'of'
p6110
aS'attorneys'
p6111
aS'and'
p6112
aS'other'
p6113
aS'professionals)'
p6114
aS'arising'
p6115
aS'out'
p6116
aS'of'
p6117
aS'or'
p6118
aS'in'
p6119
aS'connection'
p6120
aS'with'
p6121
aS'the'
p6122
aS'negligence'
p6123
aS'of'
p6124
aS'the'
p6125
aS'Indemnifying'
p6126
aS"Party's"
p6127
aS'agents'
p6128
aS'and'
p6129
aS'employees.'
p6130
asS'SENT_163'
p6131
(lp6132
S'Such'
p6133
aS'indemnity'
p6134
aS'shall'
p6135
aS'include'
p6136
aS'claims'
p6137
aS'brought'
p6138
aS'with'
p6139
aS'respect'
p6140
aS'to'
p6141
aS'the'
p6142
aS'defective'
p6143
aS'design'
p6144
aS'or'
p6145
aS'code'
p6146
aS'of'
p6147
aS'the'
p6148
aS'Product'
p6149
aS'for'
p6150
aS'which'
p6151
aS'Roxio'
p6152
aS'shall'
p6153
aS'be'
p6154
aS'the'
p6155
aS'indemnifying'
p6156
aS'party.'
p6157
asS'SENT_59'
p6158
(lp6159
S'Adaptec'
p6160
aS'will'
p6161
aS'initiate'
p6162
aS'Services'
p6163
aS'with'
p6164
aS'respect'
p6165
aS'to'
p6166
ag12
aS'Product'
p6167
aS'upon'
p6168
aS'receipt'
p6169
aS'of'
p6170
ag12
aS'Service'
p6171
aS'Order.'
p6172
asS'SENT_58'
p6173
(lp6174
S'Services'
p6175
aS'shall'
p6176
aS'not'
p6177
aS'be'
p6178
aS'performed'
p6179
aS'after'
p6180
aS'the'
p6181
aS'Separation'
p6182
aS'Date'
p6183
aS'with'
p6184
aS'respect'
p6185
aS'to'
p6186
aS'any'
p6187
aS'Product'
p6188
aS'that'
p6189
aS'has'
p6190
aS'not'
p6191
aS'been'
p6192
aS'fully'
p6193
aS'production'
p6194
aS'released'
p6195
aS'by'
p6196
aS'Roxio.'
p6197
asS'SENT_166'
p6198
(lp6199
S'ARTICLE'
p6200
aS'15'
p6201
aS'TERMINATION'
p6202
aS'15.1'
p6203
aS'TERMINATION'
p6204
aS'WITHOUT'
p6205
aS'CAUSE.'
p6206
asS'SENT_167'
p6207
(lp6208
S'Roxio'
p6209
aS'may,'
p6210
aS'for'
p6211
aS'any'
p6212
aS'reason'
p6213
aS'or'
p6214
aS'for'
p6215
aS'no'
p6216
aS'reason'
p6217
aS'whatsoever,'
p6218
aS'terminate'
p6219
aS'this'
p6220
aS'Agreement,'
p6221
aS'in'
p6222
aS'whole,'
p6223
aS'or'
p6224
aS'in'
p6225
aS'part,'
p6226
aS'upon'
p6227
aS'two'
p6228
aS'(2)'
p6229
aS'months'
p6230
aS'advance'
p6231
aS'notice'
p6232
aS'to'
p6233
aS'Adaptec.'
p6234
asS'SENT_195'
p6235
(lp6236
S'However,'
p6237
aS'except'
p6238
aS'as'
p6239
aS'provided'
p6240
aS'below'
p6241
aS'in'
p6242
aS'Section'
p6243
aS'18'
p6244
aS'(b),'
p6245
aS'neither'
p6246
aS'party'
p6247
aS'shall'
p6248
aS'commence'
p6249
aS'litigation'
p6250
aS'against'
p6251
aS'the'
p6252
aS'other'
p6253
aS'party'
p6254
aS'to'
p6255
aS'resolve'
p6256
aS'the'
p6257
aS'Dispute'
p6258
aS'(i)'
p6259
aS'until'
p6260
aS'the'
p6261
aS'parties'
p6262
aS'try'
p6263
aS'in'
p6264
aS'good'
p6265
aS'faith'
p6266
aS'to'
p6267
aS'settle'
p6268
aS'the'
p6269
aS'Dispute'
p6270
aS'by'
p6271
aS'negotiation'
p6272
aS'for'
p6273
aS'at'
p6274
aS'least'
p6275
aS'thirty'
p6276
aS'(30)'
p6277
aS'days'
p6278
aS'after'
p6279
aS'the'
p6280
aS'first'
p6281
aS'meeting'
p6282
aS'of'
p6283
aS'the'
p6284
aS'negotiating'
p6285
aS'senior'
p6286
aS'executives,'
p6287
aS'or'
p6288
aS'(b)'
p6289
aS'until'
p6290
aS'forty'
p6291
aS'(40)'
p6292
aS'days'
p6293
aS'after'
p6294
aS'notice'
p6295
aS'of'
p6296
ag12
aS'Dispute'
p6297
aS'is'
p6298
aS'given'
p6299
aS'by'
p6300
aS'either'
p6301
aS'party'
p6302
aS'to'
p6303
aS'the'
p6304
aS'other'
p6305
aS'party,'
p6306
aS'whichever'
p6307
aS'occurs'
p6308
aS'first.'
p6309
asS'SENT_194'
p6310
(lp6311
S'In'
p6312
aS'the'
p6313
aS'event'
p6314
aS'that'
p6315
aS'any'
p6316
aS'Dispute'
p6317
aS'arising'
p6318
aS'out'
p6319
aS'of'
p6320
aS'or'
p6321
aS'related'
p6322
aS'to'
p6323
aS'this'
p6324
aS'Agreement'
p6325
aS'is'
p6326
aS'not'
p6327
aS'settled'
p6328
aS'by'
p6329
aS'the'
p6330
aS'parties'
p6331
aS'within'
p6332
aS'thirty'
p6333
aS'(30)'
p6334
aS'days'
p6335
aS'after'
p6336
aS'the'
p6337
aS'first'
p6338
aS'meeting'
p6339
aS'of'
p6340
aS'the'
p6341
aS'negotiating'
p6342
aS'senior'
p6343
aS'executives,'
p6344
aS'either'
p6345
aS'party'
p6346
aS'may'
p6347
aS'commence'
p6348
aS'litigation'
p6349
aS'with'
p6350
aS'respect'
p6351
aS'to'
p6352
aS'the'
p6353
aS'Dispute.'
p6354
asS'SENT_197'
p6355
(lp6356
S'However,'
p6357
aS'the'
p6358
aS'parties'
p6359
aS'to'
p6360
aS'the'
p6361
aS'Dispute'
p6362
aS'shall'
p6363
aS'make'
p6364
ag12
aS'good'
p6365
aS'faith'
p6366
aS'effort'
p6367
aS'to'
p6368
aS'negotiate'
p6369
aS'such'
p6370
aS'Dispute,'
p6371
aS'according'
p6372
aS'to'
p6373
aS'the'
p6374
aS'above'
p6375
aS'procedures,'
p6376
aS'while'
p6377
aS'such'
p6378
aS'court'
p6379
aS'action'
p6380
aS'is'
p6381
aS'pending.'
p6382
asS'SENT_196'
p6383
(lp6384
S'(b)'
p6385
aS'Any'
p6386
aS'Dispute'
p6387
aS'regarding'
p6388
aS'the'
p6389
aS'following'
p6390
aS'is'
p6391
aS'not'
p6392
aS'required'
p6393
aS'to'
p6394
aS'be'
p6395
aS'negotiated'
p6396
aS'prior'
p6397
aS'to'
p6398
aS'seeking'
p6399
aS'relief'
p6400
aS'from'
p6401
ag12
aS'court'
p6402
aS'of'
p6403
aS'competent'
p6404
aS'jurisdiction:'
p6405
aS'breach'
p6406
aS'of'
p6407
aS'any'
p6408
aS'obligation'
p6409
aS'of'
p6410
aS'confidentiality;'
p6411
aS'infringement,'
p6412
aS'misappropriation,'
p6413
aS'or'
p6414
aS'misuse'
p6415
aS'of'
p6416
aS'any'
p6417
aS'intellectual'
p6418
aS'property'
p6419
aS'right;'
p6420
aS'or'
p6421
aS'any'
p6422
aS'other'
p6423
aS'claim'
p6424
aS'where'
p6425
aS'interim'
p6426
aS'relief'
p6427
aS'from'
p6428
aS'the'
p6429
aS'court'
p6430
aS'is'
p6431
aS'sought'
p6432
aS'to'
p6433
aS'prevent'
p6434
aS'serious'
p6435
aS'and'
p6436
aS'irreparable'
p6437
aS'injury'
p6438
aS'to'
p6439
ag12
aS'party.'
p6440
asS'SENT_191'
p6441
(lp6442
S'level)'
p6443
aS'of'
p6444
aS'each'
p6445
aS'party'
p6446
aS'who'
p6447
aS'shall'
p6448
aS'have'
p6449
aS'the'
p6450
aS'authority'
p6451
aS'to'
p6452
aS'resolve'
p6453
aS'the'
p6454
aS'matter'
p6455
aS'and'
p6456
aS'shall'
p6457
aS'meet'
p6458
aS'to'
p6459
aS'attempt'
p6460
aS'in'
p6461
aS'good'
p6462
aS'faith'
p6463
aS'to'
p6464
aS'negotiate'
p6465
ag12
aS'resolution'
p6466
aS'of'
p6467
aS'the'
p6468
aS'Dispute'
p6469
aS'prior'
p6470
aS'to'
p6471
aS'pursuing'
p6472
aS'other'
p6473
aS'available'
p6474
aS'remedies.'
p6475
asS'SENT_190'
p6476
(lp6477
S'director'
p6478
aS'or'
p6479
aS'V.P.'
p6480
asS'SENT_193'
p6481
(lp6482
S'The'
p6483
aS'specific'
p6484
aS'format'
p6485
aS'for'
p6486
aS'such'
p6487
aS'negotiations'
p6488
aS'will'
p6489
aS'be'
p6490
aS'left'
p6491
aS'to'
p6492
aS'the'
p6493
aS'discretion'
p6494
aS'of'
p6495
aS'the'
p6496
aS'designated'
p6497
aS'negotiating'
p6498
aS'senior'
p6499
aS'executives'
p6500
aS'but'
p6501
aS'may'
p6502
aS'include'
p6503
aS'the'
p6504
aS'preparation'
p6505
aS'of'
p6506
aS'agreed'
p6507
aS'upon'
p6508
aS'statements'
p6509
aS'of'
p6510
aS'fact'
p6511
aS'or'
p6512
aS'written'
p6513
aS'statements'
p6514
aS'of'
p6515
aS'position'
p6516
aS'13'
p6517
aS'furnished'
p6518
aS'to'
p6519
aS'the'
p6520
aS'other'
p6521
aS'party.'
p6522
asS'SENT_192'
p6523
(lp6524
S'During'
p6525
aS'the'
p6526
aS'course'
p6527
aS'of'
p6528
aS'negotiations'
p6529
aS'under'
p6530
aS'this'
p6531
aS'Section'
p6532
aS'18'
p6533
aS'(a),'
p6534
aS'all'
p6535
aS'reasonable'
p6536
aS'requests'
p6537
aS'made'
p6538
aS'by'
p6539
aS'one'
p6540
aS'party'
p6541
aS'to'
p6542
aS'the'
p6543
aS'other'
p6544
aS'for'
p6545
aS'information,'
p6546
aS'including'
p6547
aS'requests'
p6548
aS'for'
p6549
aS'copies'
p6550
aS'of'
p6551
aS'relevant'
p6552
aS'documents,'
p6553
aS'will'
p6554
aS'be'
p6555
aS'honored.'
p6556
asS'SENT_199'
p6557
(lp6558
S'Any'
p6559
aS'notice,'
p6560
aS'demand,'
p6561
aS'offer,'
p6562
aS'request'
p6563
aS'or'
p6564
aS'other'
p6565
aS'communication'
p6566
aS'required'
p6567
aS'or'
p6568
aS'permitted'
p6569
aS'to'
p6570
aS'be'
p6571
aS'given'
p6572
aS'by'
p6573
aS'either'
p6574
aS'party'
p6575
aS'pursuant'
p6576
aS'to'
p6577
aS'the'
p6578
aS'terms'
p6579
aS'of'
p6580
aS'this'
p6581
aS'Agreement'
p6582
aS'shall'
p6583
aS'be'
p6584
aS'in'
p6585
aS'writing'
p6586
aS'and'
p6587
aS'shall'
p6588
aS'be'
p6589
aS'deemed'
p6590
aS'effectively'
p6591
aS'given'
p6592
aS'the'
p6593
aS'earlier'
p6594
aS'of'
p6595
aS'(i)'
p6596
aS'when'
p6597
aS'received,'
p6598
aS'(ii)'
p6599
aS'when'
p6600
aS'delivered'
p6601
aS'personally,'
p6602
aS'(iii)'
p6603
aS'one'
p6604
aS'(1)'
p6605
aS'Business'
p6606
aS'Day'
p6607
aS'after'
p6608
aS'being'
p6609
aS'delivered'
p6610
aS'by'
p6611
aS'facsimile'
p6612
aS'(with'
p6613
aS'electronic'
p6614
aS'receipt'
p6615
aS'of'
p6616
aS'appropriate'
p6617
aS'confirmation),'
p6618
aS'(iv)'
p6619
aS'one'
p6620
aS'(1)'
p6621
aS'Business'
p6622
aS'Day'
p6623
aS'after'
p6624
aS'being'
p6625
aS'deposited'
p6626
aS'with'
p6627
ag12
aS'nationally'
p6628
aS'recognized'
p6629
aS'overnight'
p6630
aS'courier'
p6631
aS'service'
p6632
aS'or'
p6633
aS'(v)'
p6634
aS'four'
p6635
aS'(4)'
p6636
aS'days'
p6637
aS'after'
p6638
aS'being'
p6639
aS'deposited'
p6640
aS'in'
p6641
aS'the'
p6642
aS'U.S.'
p6643
aS'mail,'
p6644
aS'First'
p6645
aS'Class'
p6646
aS'with'
p6647
aS'postage'
p6648
aS'prepaid,'
p6649
aS'and'
p6650
aS'addressed'
p6651
aS'to'
p6652
aS'the'
p6653
aS'attention'
p6654
aS'of:'
p6655
aS'If'
p6656
aS'to'
p6657
aS'Adaptec:'
p6658
aS'Adaptec,'
p6659
aS'Inc.'
p6660
aS'691'
p6661
aS'S.'
p6662
aS'Milpitas'
p6663
aS'Boulevard'
p6664
aS'Milpitas,'
p6665
aS'California'
p6666
aS'95035'
p6667
aS'Attention:'
p6668
aS'Vice'
p6669
aS'President,'
p6670
aS'Operations'
p6671
aS'cc:'
p6672
aS'Vice'
p6673
aS'President'
p6674
aS'and'
p6675
aS'General'
p6676
aS'Counsel'
p6677
aS'If'
p6678
aS'to'
p6679
aS'Roxio:'
p6680
aS'Roxio,'
p6681
aS'Inc.'
p6682
aS'461'
p6683
aS'S.'
p6684
aS'Milpitas'
p6685
aS'Boulevard'
p6686
aS'Milpitas,'
p6687
aS'California'
p6688
aS'95035'
p6689
aS'Attention:'
p6690
aS'______'
p6691
aS'14'
p6692
aS'19.2'
p6693
aS'ASSIGNMENT.'
p6694
asS'SENT_198'
p6695
(lp6696
S'ARTICLE'
p6697
aS'19'
p6698
aS'GENERAL'
p6699
aS'19.1'
p6700
aS'NOTICES.'
p6701
asS'SENT_119'
p6702
(lp6703
S'ARTICLE'
p6704
ag4788
aS'PAYMENTS'
p6705
aS'Upon'
p6706
aS'completion'
p6707
aS'of'
p6708
aS'the'
p6709
aS'Services'
p6710
aS'specifically'
p6711
aS'relating'
p6712
aS'to'
p6713
aS'the'
p6714
aS'manufacture'
p6715
aS'and'
p6716
aS'shipment'
p6717
aS'of'
p6718
aS'Products,'
p6719
aS'as'
p6720
aS'evidenced'
p6721
aS'by'
p6722
aS'shipment'
p6723
aS'of'
p6724
aS'the'
p6725
aS'Product'
p6726
aS'from'
p6727
aS"Adaptec's"
p6728
aS'Singapore'
p6729
aS'facility,'
p6730
aS'Adaptec'
p6731
aS'will'
p6732
aS'send'
p6733
aS'an'
p6734
aS'invoice'
p6735
aS'to'
p6736
aS'Roxio'
p6737
aS'identifying'
p6738
aS'the'
p6739
aS'Service'
p6740
aS'Order,'
p6741
aS'and'
p6742
aS'confirming'
p6743
aS'the'
p6744
aS'quantity'
p6745
aS'and'
p6746
aS'description'
p6747
aS'of'
p6748
aS'all'
p6749
aS'Products'
p6750
aS'that'
p6751
aS'have'
p6752
aS'been'
p6753
aS'shipped.'
p6754
asS'SENT_118'
p6755
(lp6756
S'Unless'
p6757
aS'otherwise'
p6758
aS'agreed'
p6759
aS'in'
p6760
aS'writing'
p6761
aS'or'
p6762
aS'as'
p6763
aS'set'
p6764
aS'forth'
p6765
aS'in'
p6766
aS'the'
p6767
aS'Packaging'
p6768
aS'Specification,'
p6769
aS'all'
p6770
aS'Products'
p6771
aS'will'
p6772
aS'be'
p6773
aS'packed'
p6774
aS'and'
p6775
aS'shipped'
p6776
aS'in'
p6777
aS'accordance'
p6778
aS'with'
p6779
aS"Adaptec's"
p6780
aS'normal'
p6781
aS'practices.'
p6782
asS'SENT_217'
p6783
(lp6784
S'The'
p6785
aS'waiver'
p6786
aS'by'
p6787
aS'either'
p6788
aS'party'
p6789
aS'hereto'
p6790
aS'of'
p6791
ag12
aS'breach'
p6792
aS'or'
p6793
aS'violation'
p6794
aS'of'
p6795
aS'any'
p6796
aS'provision'
p6797
aS'of'
p6798
aS'this'
p6799
aS'Agreement'
p6800
aS'shall'
p6801
aS'be'
p6802
aS'made'
p6803
aS'only'
p6804
aS'in'
p6805
ag12
aS'writing'
p6806
aS'signed'
p6807
aS'by'
p6808
aS'the'
p6809
aS'party'
p6810
aS'making'
p6811
aS'such'
p6812
aS'waiver,'
p6813
aS'and'
p6814
aS'shall'
p6815
aS'not'
p6816
aS'operate'
p6817
aS'as,'
p6818
aS'or'
p6819
aS'be'
p6820
aS'construed'
p6821
aS'to'
p6822
aS'constitute,'
p6823
ag12
aS'waiver'
p6824
aS'of'
p6825
aS'any'
p6826
aS'subsequent'
p6827
aS'breach'
p6828
aS'of'
p6829
aS'the'
p6830
aS'same'
p6831
aS'or'
p6832
aS'another'
p6833
aS'provision'
p6834
aS'hereof.'
p6835
asS'SENT_115'
p6836
(lp6837
S'In'
p6838
aS'no'
p6839
aS'event'
p6840
aS'shall'
p6841
aS'Adaptec'
p6842
aS'be'
p6843
aS'liable'
p6844
aS'for'
p6845
aS'any'
p6846
aS'delay'
p6847
aS'in'
p6848
aS'delivery,'
p6849
aS'or'
p6850
aS'assume'
p6851
aS'any'
p6852
aS'liability'
p6853
aS'in'
p6854
aS'connection'
p6855
aS'with'
p6856
aS'shipment,'
p6857
aS'nor'
p6858
aS'shall'
p6859
aS'the'
p6860
aS'carrier'
p6861
aS'be'
p6862
aS'deemed'
p6863
aS'an'
p6864
aS'agent'
p6865
aS'of'
p6866
ag4788
aS'Adaptec.'
p6867
asS'SENT_114'
p6868
(lp6869
S'Adaptec'
p6870
aS'will'
p6871
aS'select'
p6872
aS'the'
p6873
aS'carrier.'
p6874
asS'SENT_117'
p6875
(lp6876
S'Shipments'
p6877
aS'may'
p6878
aS'be'
p6879
aS'made'
p6880
aS'in'
p6881
aS'installments.'
p6882
asS'SENT_116'
p6883
(lp6884
S'All'
p6885
aS'claims'
p6886
aS'for'
p6887
aS'damages'
p6888
aS'must'
p6889
aS'be'
p6890
aS'filed'
p6891
aS'with'
p6892
aS'the'
p6893
aS'carrier.'
p6894
asS'SENT_111'
p6895
(lp6896
S'6.2'
p6897
aS'SHIPMENT.'
p6898
asS'SENT_110'
p6899
(lp6900
S'All'
p6901
aS'quoted'
p6902
aS'Delivery'
p6903
aS'dates'
p6904
aS'are'
p6905
aS'estimates'
p6906
aS'only'
p6907
aS'and'
p6908
aS'Adaptec'
p6909
aS'shall'
p6910
aS'not'
p6911
aS'be'
p6912
aS'liable'
p6913
aS'for'
p6914
aS'any'
p6915
aS'failure'
p6916
aS'to'
p6917
aS'meet'
p6918
ag12
aS'quoted'
p6919
aS'Delivery'
p6920
aS'date.'
p6921
asS'SENT_113'
p6922
(lp6923
S'Roxio'
p6924
aS'will'
p6925
aS'be'
p6926
aS'billed'
p6927
aS'for'
p6928
aS'the'
p6929
aS'charges'
p6930
aS'on'
p6931
ag12
aS'monthly'
p6932
aS'basis'
p6933
aS'at'
p6934
aS'the'
p6935
aS'rate'
p6936
aS'of'
p6937
aS'actual'
p6938
aS'shipping'
p6939
aS'cost'
p6940
aS'plus'
p6941
aS'five'
p6942
aS'percent'
p6943
aS'(5%).'
p6944
asS'SENT_112'
p6945
(lp6946
S'Unless'
p6947
aS'otherwise'
p6948
aS'agreed'
p6949
aS'by'
p6950
aS'the'
p6951
aS'parties,'
p6952
aS'shipping'
p6953
aS'and'
p6954
aS'insurance'
p6955
aS'costs'
p6956
aS'from'
p6957
aS"Adaptec's"
p6958
aS'Singapore'
p6959
aS'facility'
p6960
aS'to'
p6961
aS'the'
p6962
aS'Delivery'
p6963
aS'Point'
p6964
aS'will'
p6965
aS'be'
p6966
aS'paid'
p6967
aS'by'
p6968
aS'Adaptec'
p6969
aS'and'
p6970
aS'reimbursed'
p6971
aS'by'
p6972
aS'Roxio.'
p6973
asS'SENT_42'
p6974
(lp6975
S'1.20'
p6976
aS'SERVICE'
p6977
aS'ORDERS.'
p6978
asS'SENT_43'
p6979
(lp6980
S'"Service'
p6981
aS'Orders"'
p6982
aS'means'
p6983
aS'written'
p6984
aS'or'
p6985
aS'electronically'
p6986
aS'transmitted'
p6987
aS'Service'
p6988
aS'Orders'
p6989
aS'for'
p6990
aS'Products'
p6991
aS'placed'
p6992
aS'by'
p6993
aS'Roxio'
p6994
aS'with'
p6995
aS'Adaptec'
p6996
aS'in'
p6997
aS'accordance'
p6998
aS'with'
p6999
aS'the'
p7000
aS'Guidelines,'
p7001
aS'including'
p7002
aS'the'
p7003
aS'description,'
p7004
aS'quantity,'
p7005
aS'Customer,'
p7006
aS'Delivery'
p7007
aS'Point,'
p7008
aS'requested'
p7009
aS'Delivery'
p7010
aS'date,'
p7011
aS'ship'
p7012
aS'to'
p7013
aS'point'
p7014
aS'and'
p7015
aS'other'
p7016
aS'relevant'
p7017
aS'information'
p7018
aS'relating'
p7019
aS'to'
p7020
aS'the'
p7021
aS'order'
p7022
aS'and'
p7023
aS'shipment.'
p7024
asS'SENT_40'
p7025
(lp7026
S'1.19'
p7027
aS'SERVICE'
p7028
aS'FEE.'
p7029
asS'SENT_41'
p7030
(lp7031
S'"Service'
p7032
aS'Fee"'
p7033
aS'means'
p7034
aS'the'
p7035
aS'fee'
p7036
aS'to'
p7037
aS'be'
p7038
aS'charged'
p7039
aS'Roxio'
p7040
aS'by'
p7041
aS'Adaptec'
p7042
aS'to'
p7043
aS'perform'
p7044
aS'Services'
p7045
aS'with'
p7046
aS'respect'
p7047
aS'to'
p7048
aS'each'
p7049
aS'Product,'
p7050
aS'initially'
p7051
aS'as'
p7052
aS'set'
p7053
aS'forth'
p7054
aS'in'
p7055
aS'EXHIBIT'
p7056
aS'A,'
p7057
aS'or'
p7058
aS'determined'
p7059
aS'in'
p7060
aS'Article'
p7061
aS'4.'
p7062
asS'SENT_46'
p7063
(lp7064
S'1.22'
p7065
aS'SPECIFICATIONS.'
p7066
asS'SENT_47'
p7067
(lp7068
S'"Specifications"'
p7069
aS'means'
p7070
aS'the'
p7071
aS'respective'
p7072
aS'specifications'
p7073
aS'for'
p7074
aS'each'
p7075
aS'Product'
p7076
aS'provided'
p7077
aS'by'
p7078
aS'Roxio.'
p7079
asS'SENT_44'
p7080
(lp7081
S'1.21'
p7082
aS'SERVICES.'
p7083
asS'SENT_45'
p7084
(lp7085
S'"Services"'
p7086
aS'means'
p7087
aS'the'
p7088
aS'operations'
p7089
aS'services'
p7090
aS'performed'
p7091
aS'by'
p7092
aS'Adaptec'
p7093
aS'hereunder'
p7094
aS'with'
p7095
aS'respect'
p7096
aS'to'
p7097
aS'the'
p7098
aS'Products,'
p7099
aS'including'
p7100
aS'procurement,'
p7101
aS'demand'
p7102
ag4717
aS'fulfillment,'
p7103
aS'planning,'
p7104
aS'forecasting,'
p7105
aS'manufacturing,'
p7106
aS'packaging,'
p7107
aS'shipping,'
p7108
aS'receiving,'
p7109
aS'internal'
p7110
aS'warehousing,'
p7111
aS'invoicing'
p7112
aS'and'
p7113
aS'engineering/document'
p7114
aS'control.'
p7115
asS'SENT_173'
p7116
(lp7117
S'The'
p7118
aS'following'
p7119
aS'terms'
p7120
aS'apply'
p7121
aS'to'
p7122
aS'any'
p7123
aS'termination'
p7124
aS'under'
p7125
aS'this'
p7126
aS'Agreement,'
p7127
aS'including'
p7128
aS'without'
p7129
aS'limitation,'
p7130
aS'termination'
p7131
aS'for'
p7132
aS'convenience'
p7133
aS'and'
p7134
aS'for'
p7135
aS'default:'
p7136
aS'(a)'
p7137
aS'Immediately'
p7138
aS'upon'
p7139
aS'any'
p7140
aS'termination'
p7141
aS'of'
p7142
aS'this'
p7143
aS'Agreement,'
p7144
aS'Adaptec'
p7145
aS'shall,'
p7146
aS'to'
p7147
aS'the'
p7148
aS'extent'
p7149
aS'and'
p7150
aS'at'
p7151
aS'the'
p7152
aS'times'
p7153
aS'specified'
p7154
aS'by'
p7155
aS'Roxio,'
p7156
aS'stop'
p7157
aS'all'
p7158
aS'work'
p7159
aS'on'
p7160
aS'outstanding'
p7161
aS'Service'
p7162
aS'Orders,'
p7163
aS'incur'
p7164
aS'no'
p7165
aS'further'
p7166
aS'direct'
p7167
aS'cost,'
p7168
aS'and'
p7169
aS'protect'
p7170
aS'all'
p7171
aS'property'
p7172
aS'in'
p7173
aS'which'
p7174
aS'Roxio'
p7175
aS'has'
p7176
aS'or'
p7177
aS'may'
p7178
aS'acquire'
p7179
aS'an'
p7180
aS'interest'
p7181
aS'pursuant'
p7182
aS'to'
p7183
aS'this'
p7184
aS'Article'
p7185
aS'15.'
p7186
asS'SENT_172'
p7187
(lp7188
S'15.4'
p7189
aS'EFFECT'
p7190
aS'OF'
p7191
aS'TERMINATION'
p7192
aS'IN'
p7193
aS'GENERAL.'
p7194
asS'SENT_48'
p7195
(lp7196
S'1.23'
p7197
aS'STANDARD'
p7198
aS'COST.'
p7199
asS'SENT_49'
p7200
(lp7201
S'"Standard'
p7202
aS'Cost"'
p7203
aS'means'
p7204
aS'the'
p7205
aS'standard'
p7206
aS'cost'
p7207
aS'of'
p7208
aS'performing'
p7209
aS'Services'
p7210
aS'with'
p7211
aS'respect'
p7212
aS'to'
p7213
ag12
aS'component'
p7214
aS'or'
p7215
aS'Product,'
p7216
aS'as'
p7217
aS'set'
p7218
aS'forth'
p7219
aS'in'
p7220
aS"Adaptec's"
p7221
aS'SAP'
p7222
aS'system,'
p7223
aS'at'
p7224
aS'the'
p7225
aS'Separation'
p7226
aS'Date'
p7227
aS'or'
p7228
aS'such'
p7229
aS'later'
p7230
aS'date'
p7231
aS'as'
p7232
ag12
aS'Service'
p7233
aS'Fee'
p7234
aS'with'
p7235
aS'respect'
p7236
aS'to'
p7237
ag12
aS'Product'
p7238
aS'may'
p7239
aS'be'
p7240
aS'determined'
p7241
aS'in'
p7242
aS'accordance'
p7243
aS'with'
p7244
aS'Article'
p7245
aS'4.'
p7246
asS'SENT_177'
p7247
(lp7248
S'Notwithstanding'
p7249
aS'the'
p7250
aS'foregoing,'
p7251
aS'Adaptec'
p7252
aS'shall'
p7253
aS'have'
p7254
aS'no'
p7255
aS'obligation'
p7256
aS'to'
p7257
aS'deliver'
p7258
aS'any'
p7259
aS'Inventory'
p7260
aS'until'
p7261
aS'and'
p7262
aS'unless'
p7263
aS'it'
p7264
aS'has'
p7265
aS'been'
p7266
aS'paid'
p7267
aS'for'
p7268
aS'by'
p7269
aS'Roxio.'
p7270
asS'SENT_176'
p7271
(lp7272
S'In'
p7273
aS'addition'
p7274
aS'Adaptec'
p7275
aS'shall'
p7276
aS'immediately'
p7277
aS'deliver'
p7278
aS'to'
p7279
aS'Roxio'
p7280
aS'any'
p7281
aS'and'
p7282
aS'all'
p7283
aS'Roxio'
p7284
aS'Technology,'
p7285
aS'Roxio'
p7286
aS'Documentation'
p7287
aS'or'
p7288
aS'other'
p7289
aS'property'
p7290
aS'of'
p7291
aS'Roxio'
p7292
aS'within'
p7293
aS"Adaptec's"
p7294
aS'possession'
p7295
aS'or'
p7296
aS'control.'
p7297
asS'SENT_175'
p7298
(lp7299
S'Returned'
p7300
aS'Confidential'
p7301
aS'Information'
p7302
aS'materials'
p7303
aS'shall'
p7304
aS'be'
p7305
aS'shipped'
p7306
aS'freight'
p7307
aS'collect.'
p7308
asS'SENT_174'
p7309
(lp7310
S'(b)'
p7311
aS'Immediately'
p7312
aS'upon'
p7313
aS'any'
p7314
aS'termination'
p7315
aS'of'
p7316
aS'this'
p7317
aS'Agreement,'
p7318
aS'each'
p7319
aS'party'
p7320
aS'will'
p7321
aS'return'
p7322
aS'to'
p7323
aS'the'
p7324
aS'other'
p7325
aS'party'
p7326
aS'or,'
p7327
aS'pursuant'
p7328
aS'to'
p7329
aS'the'
p7330
aS'other'
p7331
aS"party's"
p7332
aS'written'
p7333
aS'instructions,'
p7334
aS'destroy'
p7335
aS'all'
p7336
aS'materials'
p7337
aS'in'
p7338
aS'its'
p7339
aS'possession'
p7340
aS'containing'
p7341
aS'Confidential'
p7342
aS'Information'
p7343
aS'of'
p7344
aS'the'
p7345
aS'other'
p7346
aS'party.'
p7347
asS'SENT_182'
p7348
(lp7349
S'Such'
p7350
aS'Roxio'
p7351
aS'Documentation'
p7352
aS'shall,'
p7353
aS'as'
p7354
aS'applicable,'
p7355
aS'be'
p7356
aS'in'
p7357
aS'compiled,'
p7358
aS'electronic'
p7359
aS'form.'
p7360
asS'SENT_211'
p7361
(lp7362
S'Roxio'
p7363
aS'will'
p7364
aS'not'
p7365
aS'knowingly,'
p7366
aS'export'
p7367
aS'or'
p7368
aS'reexport'
p7369
aS'any'
p7370
aS'Product'
p7371
aS'to'
p7372
aS'any'
p7373
aS'country'
p7374
aS'prohibited'
p7375
aS'under'
p7376
aS'United'
p7377
aS'States'
p7378
aS'Export'
p7379
aS'Administration'
p7380
aS'Regulations'
p7381
aS'("EAR"),'
p7382
aS'without'
p7383
aS'first'
p7384
aS'obtaining'
p7385
ag12
aS'valid'
p7386
aS'license'
p7387
aS'to'
p7388
aS'so'
p7389
aS'export'
p7390
aS'or'
p7391
aS'reexport'
p7392
aS'the'
p7393
aS'Products.'
p7394
asS'SENT_205'
p7395
(lp7396
S'19.4'
p7397
aS'ALLOCATION'
p7398
aS'OF'
p7399
aS'RISK.'
p7400
asS'SENT_183'
p7401
(lp7402
S'Additionally,'
p7403
aS'subject'
p7404
aS'to'
p7405
aS'the'
p7406
aS'mutual'
p7407
aS'agreement'
p7408
aS'of'
p7409
aS'the'
p7410
aS'parties'
p7411
aS'with'
p7412
aS'respect'
p7413
aS'to'
p7414
aS'scheduling'
p7415
aS'and'
p7416
aS'compensation'
p7417
aS'to'
p7418
aS'Adaptec,'
p7419
aS'Adaptec'
p7420
aS'shall'
p7421
aS'provide'
p7422
aS'such'
p7423
aS'technical'
p7424
aS'assistance'
p7425
aS'to'
p7426
aS'Roxio'
p7427
aS'or'
p7428
aS"Roxio's"
p7429
aS'designated'
p7430
aS'third'
p7431
aS'party'
p7432
aS'manufacturer,'
p7433
aS'as'
p7434
aS'Roxio'
p7435
aS'may'
p7436
aS'reasonably'
p7437
aS'request'
p7438
aS'in'
p7439
aS'connection'
p7440
aS'with'
p7441
aS'such'
p7442
aS'transfer.'
p7443
asS'SENT_164'
p7444
(lp7445
S'The'
p7446
aS'Indemnifying'
p7447
aS'Party'
p7448
aS'shall'
p7449
aS'pay'
p7450
aS'all'
p7451
aS'costs'
p7452
aS'of'
p7453
aS'defense'
p7454
aS'and'
p7455
aS'settlement,'
p7456
aS'together'
p7457
aS'with'
p7458
aS'any'
p7459
aS'judgment'
p7460
aS'which'
p7461
aS'may'
p7462
aS'be'
p7463
aS'finally'
p7464
aS'awarded;'
p7465
aS'provided:'
p7466
aS'(a)'
p7467
aS'the'
p7468
aS'Indemnified'
p7469
aS'Party'
p7470
aS'gives'
p7471
aS'the'
p7472
aS'Indemnifying'
p7473
aS'Party'
p7474
aS'reasonably'
p7475
aS'prompt'
p7476
aS'notice'
p7477
aS'in'
p7478
aS'writing'
p7479
aS'of'
p7480
aS'any'
p7481
aS'such'
p7482
aS'suit'
p7483
aS'and'
p7484
aS'permits'
p7485
aS'the'
p7486
aS'Indemnifying'
p7487
aS'Party,'
p7488
aS'through'
p7489
aS'counsel'
p7490
aS'of'
p7491
aS'its'
p7492
aS'choice,'
p7493
aS'to'
p7494
aS'defend'
p7495
aS'and/or'
p7496
aS'settle'
p7497
aS'such'
p7498
aS'Claim;'
p7499
aS'and'
p7500
aS'(b)'
p7501
aS'the'
p7502
aS'Indemnified'
p7503
aS'Party'
p7504
aS'provides'
p7505
aS'the'
p7506
aS'Indemnifying'
p7507
aS'Party'
p7508
aS'information,'
p7509
aS'assistance'
p7510
aS'and'
p7511
aS'authority,'
p7512
aS'at'
p7513
aS'the'
p7514
aS'Indemnifying'
p7515
aS"Party's"
p7516
aS'expense,'
p7517
aS'to'
p7518
aS'enable'
p7519
aS'the'
p7520
aS'Indemnifying'
p7521
aS'Party'
p7522
aS'to'
p7523
aS'defend'
p7524
aS'such'
p7525
aS'Claim.'
p7526
as.